
velo-pc_atmega328pb_ST7565.elf:     file format elf32-avr

Sections:
Idx Name          Size      VMA       LMA       File off  Algn
  0 .data         000000b4  00800100  0000340a  0000349e  2**0
                  CONTENTS, ALLOC, LOAD, DATA
  1 .text         0000340a  00000000  00000000  00000094  2**1
                  CONTENTS, ALLOC, LOAD, READONLY, CODE
  2 .bss          00000501  008001b4  008001b4  00003552  2**0
                  ALLOC
  3 .comment      0000005c  00000000  00000000  00003552  2**0
                  CONTENTS, READONLY
  4 .note.gnu.avr.deviceinfo 00000040  00000000  00000000  000035b0  2**2
                  CONTENTS, READONLY

Disassembly of section .text:

00000000 <.text>:
       0:	0c 94 71 03 	jmp	0x6e2	;  0x6e2
       4:	0c 94 4c 13 	jmp	0x2698	;  0x2698
       8:	0c 94 8e 03 	jmp	0x71c	;  0x71c
       c:	0c 94 8e 03 	jmp	0x71c	;  0x71c
      10:	0c 94 8e 03 	jmp	0x71c	;  0x71c
      14:	0c 94 8e 03 	jmp	0x71c	;  0x71c
      18:	0c 94 8e 03 	jmp	0x71c	;  0x71c
      1c:	0c 94 8e 03 	jmp	0x71c	;  0x71c
      20:	0c 94 8e 03 	jmp	0x71c	;  0x71c
      24:	0c 94 8e 03 	jmp	0x71c	;  0x71c
      28:	0c 94 8e 03 	jmp	0x71c	;  0x71c
      2c:	0c 94 8e 03 	jmp	0x71c	;  0x71c
      30:	0c 94 8e 03 	jmp	0x71c	;  0x71c
      34:	0c 94 8e 03 	jmp	0x71c	;  0x71c
      38:	0c 94 8e 03 	jmp	0x71c	;  0x71c
      3c:	0c 94 8e 03 	jmp	0x71c	;  0x71c
      40:	0c 94 8e 03 	jmp	0x71c	;  0x71c
      44:	0c 94 8e 03 	jmp	0x71c	;  0x71c
      48:	0c 94 c9 12 	jmp	0x2592	;  0x2592
      4c:	0c 94 8e 03 	jmp	0x71c	;  0x71c
      50:	0c 94 00 13 	jmp	0x2600	;  0x2600
      54:	0c 94 05 10 	jmp	0x200a	;  0x200a
      58:	0c 94 8e 03 	jmp	0x71c	;  0x71c
      5c:	0c 94 8e 03 	jmp	0x71c	;  0x71c
      60:	0c 94 8e 03 	jmp	0x71c	;  0x71c
      64:	0c 94 8e 03 	jmp	0x71c	;  0x71c
      68:	0c 94 8e 03 	jmp	0x71c	;  0x71c
      6c:	0c 94 8e 03 	jmp	0x71c	;  0x71c
      70:	0c 94 8e 03 	jmp	0x71c	;  0x71c
      74:	0c 94 8e 03 	jmp	0x71c	;  0x71c
      78:	0c 94 8e 03 	jmp	0x71c	;  0x71c
      7c:	0c 94 8e 03 	jmp	0x71c	;  0x71c
      80:	0c 94 8e 03 	jmp	0x71c	;  0x71c
      84:	0c 94 8e 03 	jmp	0x71c	;  0x71c
      88:	0c 94 8e 03 	jmp	0x71c	;  0x71c
      8c:	0c 94 8e 03 	jmp	0x71c	;  0x71c
      90:	0c 94 8e 03 	jmp	0x71c	;  0x71c
      94:	0c 94 8e 03 	jmp	0x71c	;  0x71c
      98:	0c 94 8e 03 	jmp	0x71c	;  0x71c
      9c:	0c 94 8e 03 	jmp	0x71c	;  0x71c
      a0:	0c 94 d9 11 	jmp	0x23b2	;  0x23b2
      a4:	0c 94 8e 03 	jmp	0x71c	;  0x71c
      a8:	0c 94 8e 03 	jmp	0x71c	;  0x71c
      ac:	0c 94 8e 03 	jmp	0x71c	;  0x71c
      b0:	0c 94 8e 03 	jmp	0x71c	;  0x71c
      b4:	6e 61       	ori	r22, 0x1E	; 30
      b6:	6e 00       	.word	0x006e	; ????
      b8:	69 6e       	ori	r22, 0xE9	; 233
      ba:	66 00       	.word	0x0066	; ????
      bc:	00 40       	sbci	r16, 0x00	; 0
      be:	7a 10       	cpse	r7, r10
      c0:	f3 5a       	subi	r31, 0xA3	; 163
      c2:	00 a0       	ldd	r0, Z+32	; 0x20
      c4:	72 4e       	sbci	r23, 0xE2	; 226
      c6:	18 09       	sbc	r17, r8
      c8:	00 10       	cpse	r0, r0
      ca:	a5 d4       	rcall	.+2378   	;  0xa16
      cc:	e8 00       	.word	0x00e8	; ????
      ce:	00 e8       	ldi	r16, 0x80	; 128
      d0:	76 48       	sbci	r23, 0x86	; 134
      d2:	17 00       	.word	0x0017	; ????
      d4:	00 e4       	ldi	r16, 0x40	; 64
      d6:	0b 54       	subi	r16, 0x4B	; 75
      d8:	02 00       	.word	0x0002	; ????
      da:	00 ca       	rjmp	.-3072   	;  0xfffff4dc
      dc:	9a 3b       	cpi	r25, 0xBA	; 186
      de:	00 00       	nop
      e0:	00 e1       	ldi	r16, 0x10	; 16
      e2:	f5 05       	cpc	r31, r5
      e4:	00 00       	nop
      e6:	80 96       	adiw	r24, 0x20	; 32
      e8:	98 00       	.word	0x0098	; ????
      ea:	00 00       	nop
      ec:	40 42       	sbci	r20, 0x20	; 32
      ee:	0f 00       	.word	0x000f	; ????
      f0:	00 00       	nop
      f2:	a0 86       	std	Z+8, r10	; 0x08
      f4:	01 00       	.word	0x0001	; ????
      f6:	00 00       	nop
      f8:	10 27       	eor	r17, r16
      fa:	00 00       	nop
      fc:	00 00       	nop
      fe:	e8 03       	fmulsu	r22, r16
     100:	00 00       	nop
     102:	00 00       	nop
     104:	64 00       	.word	0x0064	; ????
     106:	00 00       	nop
     108:	00 00       	nop
     10a:	0a 00       	.word	0x000a	; ????
     10c:	00 00       	nop
     10e:	00 00       	nop
     110:	01 00       	.word	0x0001	; ????
     112:	00 00       	nop
     114:	00 00       	nop
     116:	2c 76       	andi	r18, 0x6C	; 108
     118:	d8 88       	ldd	r13, Y+16	; 0x10
     11a:	dc 67       	ori	r29, 0x7C	; 124
     11c:	4f 08       	sbc	r4, r15
     11e:	23 df       	rcall	.-442    	;  0xffffff66
     120:	c1 df       	rcall	.-126    	;  0xa4
     122:	ae 59       	subi	r26, 0x9E	; 158
     124:	e1 b1       	in	r30, 0x01	; 1
     126:	b7 96       	adiw	r30, 0x27	; 39
     128:	e5 e3       	ldi	r30, 0x35	; 53
     12a:	e4 53       	subi	r30, 0x34	; 52
     12c:	c6 3a       	cpi	r28, 0xA6	; 166
     12e:	e6 51       	subi	r30, 0x16	; 22
     130:	99 76       	andi	r25, 0x69	; 105
     132:	96 e8       	ldi	r25, 0x86	; 134
     134:	e6 c2       	rjmp	.+1484   	;  0x702
     136:	84 26       	eor	r8, r20
     138:	eb 89       	ldd	r30, Y+19	; 0x13
     13a:	8c 9b       	sbis	0x11, 4	; 17
     13c:	62 ed       	ldi	r22, 0xD2	; 210
     13e:	40 7c       	andi	r20, 0xC0	; 192
     140:	6f fc       	.word	0xfc6f	; ????
     142:	ef bc       	out	0x2f, r14	; 47
     144:	9c 9f       	mul	r25, r28
     146:	40 f2       	brcs	.-112    	;  0xd8
     148:	ba a5       	ldd	r27, Y+42	; 0x2a
     14a:	6f a5       	ldd	r22, Y+47	; 0x2f
     14c:	f4 90       	lpm	r15, Z
     14e:	05 5a       	subi	r16, 0xA5	; 165
     150:	2a f7       	brpl	.-54     	;  0x11c
     152:	5c 93       	st	X, r21
     154:	6b 6c       	ori	r22, 0xCB	; 203
     156:	f9 67       	ori	r31, 0x79	; 121
     158:	6d c1       	rjmp	.+730    	;  0x434
     15a:	1b fc       	.word	0xfc1b	; ????
     15c:	e0 e4       	ldi	r30, 0x40	; 64
     15e:	0d 47       	sbci	r16, 0x7D	; 125
     160:	fe f5       	brtc	.+126    	;  0x1e0
     162:	20 e6       	ldi	r18, 0x60	; 96
     164:	b5 00       	.word	0x00b5	; ????
     166:	d0 ed       	ldi	r29, 0xD0	; 208
     168:	90 2e       	mov	r9, r16
     16a:	03 00       	.word	0x0003	; ????
     16c:	94 35       	cpi	r25, 0x54	; 84
     16e:	77 05       	cpc	r23, r7
     170:	00 80       	ld	r0, Z
     172:	84 1e       	adc	r8, r20
     174:	08 00       	.word	0x0008	; ????
     176:	00 20       	and	r0, r0
     178:	4e 0a       	sbc	r4, r30
     17a:	00 00       	nop
     17c:	00 c8       	rjmp	.-4096   	;  0xfffff17e
     17e:	0c 33       	cpi	r16, 0x3C	; 60
     180:	33 33       	cpi	r19, 0x33	; 51
     182:	33 0f       	add	r19, r19
     184:	98 6e       	ori	r25, 0xE8	; 232
     186:	12 83       	std	Z+2, r17	; 0x02
     188:	11 41       	sbci	r17, 0x11	; 17
     18a:	ef 8d       	ldd	r30, Y+31	; 0x1f
     18c:	21 14       	cp	r2, r1
     18e:	89 3b       	cpi	r24, 0xB9	; 185
     190:	e6 55       	subi	r30, 0x56	; 86
     192:	16 cf       	rjmp	.-468    	;  0xffffffc0
     194:	fe e6       	ldi	r31, 0x6E	; 110
     196:	db 18       	sub	r13, r11
     198:	d1 84       	ldd	r13, Z+9	; 0x09
     19a:	4b 38       	cpi	r20, 0x8B	; 139
     19c:	1b f7       	brvc	.-58     	;  0x164
     19e:	7c 1d       	adc	r23, r12
     1a0:	90 1d       	adc	r25, r0
     1a2:	a4 bb       	out	0x14, r26	; 20
     1a4:	e4 24       	eor	r14, r4
     1a6:	20 32       	cpi	r18, 0x20	; 32
     1a8:	84 72       	andi	r24, 0x24	; 36
     1aa:	5e 22       	and	r5, r30
     1ac:	81 00       	.word	0x0081	; ????
     1ae:	c9 f1       	breq	.+114    	;  0x222
     1b0:	24 ec       	ldi	r18, 0xC4	; 196
     1b2:	a1 e5       	ldi	r26, 0x51	; 81
     1b4:	3d 27       	eor	r19, r29
     1b6:	10 02       	muls	r17, r16
     1b8:	05 05       	cpc	r16, r5
     1ba:	05 05       	cpc	r16, r5
     1bc:	01 01       	movw	r0, r2
     1be:	06 13       	cpse	r16, r22
     1c0:	1a 00       	.word	0x001a	; ????
     1c2:	00 1a       	sub	r0, r16
     1c4:	00 1a       	sub	r0, r16
     1c6:	00 00       	nop
     1c8:	00 00       	nop
     1ca:	00 01       	movw	r0, r0
     1cc:	a5 20       	and	r10, r5
     1ce:	09 53       	subi	r16, 0x39	; 57
     1d0:	3f 7f       	andi	r19, 0xFF	; 255
     1d2:	f0 ff       	sbrs	r31, 0
     1d4:	eb 00       	.word	0x00eb	; ????
     1d6:	2b 13       	cpse	r18, r27
     1d8:	53 3f       	cpi	r21, 0xF3	; 243
     1da:	7f 90       	pop	r7
     1dc:	1d e0       	ldi	r17, 0x0D	; 13
     1de:	f8 52       	subi	r31, 0x28	; 40
     1e0:	24 a2       	std	Z+36, r2	; 0x24
     1e2:	34 c0       	rjmp	.+104    	;  0x24c
     1e4:	f1 7d       	andi	r31, 0xD1	; 209
     1e6:	b0 0e       	add	r11, r16
     1e8:	00 2c       	mov	r0, r0
     1ea:	10 53       	subi	r17, 0x30	; 48
     1ec:	3f 7f       	andi	r19, 0xFF	; 255
     1ee:	f0 cf       	rjmp	.-32     	;  0x1d0
     1f0:	17 ae       	std	Z+63, r1	; 0x3f
     1f2:	1c 23       	and	r17, r28
     1f4:	1e e9       	ldi	r17, 0x9E	; 158
     1f6:	03 13       	cpse	r16, r19
     1f8:	00 2d       	mov	r16, r0
     1fa:	0d 53       	subi	r16, 0x3D	; 61
     1fc:	3f 7f       	andi	r19, 0xFF	; 255
     1fe:	f0 e1       	ldi	r31, 0x10	; 16
     200:	44 25       	eor	r20, r4
     202:	1f fc       	.word	0xfc1f	; ????
     204:	21 00       	.word	0x0021	; ????
     206:	2e 0d       	add	r18, r14
     208:	53 3f       	cpi	r21, 0xF3	; 243
     20a:	7f f0       	brie	.+30     	;  0x22a
     20c:	bf 5c       	subi	r27, 0xCF	; 207
     20e:	b8 72       	andi	r27, 0x28	; 40
     210:	1f 80       	ldd	r1, Y+7	; 0x07
     212:	00 30       	cpi	r16, 0x00	; 0
     214:	40 53       	subi	r20, 0x30	; 48
     216:	3f 87       	std	Y+15, r19	; 0x0f
     218:	48 44       	sbci	r20, 0x48	; 72
     21a:	42 60       	ori	r20, 0x02	; 2
     21c:	83 10       	cpse	r8, r3
     21e:	d8 20       	and	r13, r8
     220:	04 36       	cpi	r16, 0x64	; 100
     222:	08 81       	ld	r16, Y
     224:	0d 42       	sbci	r16, 0x2D	; 45
     226:	60 83       	st	Z, r22
     228:	10 d8       	rcall	.-4064   	;  0xfffff24a
     22a:	20 04       	cpc	r2, r0
     22c:	36 08       	sbc	r3, r6
     22e:	81 0d       	add	r24, r1
     230:	42 60       	ori	r20, 0x02	; 2
     232:	83 10       	cpse	r8, r3
     234:	d8 20       	and	r13, r8
     236:	04 36       	cpi	r16, 0x64	; 100
     238:	08 81       	ld	r16, Y
     23a:	0d 42       	sbci	r16, 0x2D	; 45
     23c:	60 83       	st	Z, r22
     23e:	10 d8       	rcall	.-4064   	;  0xfffff260
     240:	20 04       	cpc	r2, r0
     242:	36 08       	sbc	r3, r6
     244:	81 0d       	add	r24, r1
     246:	42 60       	ori	r20, 0x02	; 2
     248:	83 10       	cpse	r8, r3
     24a:	d8 20       	and	r13, r8
     24c:	04 36       	cpi	r16, 0x64	; 100
     24e:	88 b8       	out	0x08, r8	; 8
     250:	0f 20       	and	r0, r15
     252:	00 31       	cpi	r16, 0x10	; 16
     254:	0e 53       	subi	r16, 0x3E	; 62
     256:	3f 1f       	adc	r19, r31
     258:	a3 19       	sub	r26, r3
     25a:	70 fc       	sbrc	r7, 0
     25c:	ff 7f       	andi	r31, 0xFF	; 255
     25e:	1f 68       	ori	r17, 0x8F	; 143
     260:	00 32       	cpi	r16, 0x20	; 32
     262:	14 53       	subi	r17, 0x34	; 52
     264:	3f 87       	std	Y+15, r19	; 0x0f
     266:	48 44       	sbci	r20, 0x48	; 72
     268:	70 fc       	sbrc	r7, 0
     26a:	13 31       	cpi	r17, 0x13	; 19
     26c:	21 44       	sbci	r18, 0x41	; 65
     26e:	f1 8b       	std	Z+17, r31	; 0x11
     270:	91 88       	ldd	r9, Z+17	; 0x11
     272:	7d 00       	.word	0x007d	; ????
     274:	01 33       	cpi	r16, 0x31	; 49
     276:	12 53       	subi	r17, 0x32	; 50
     278:	3f 87       	std	Y+15, r19	; 0x0f
     27a:	48 44       	sbci	r20, 0x48	; 72
     27c:	70 fc       	sbrc	r7, 0
     27e:	2b 2e       	mov	r2, r27
     280:	38 fe       	.word	0xfe38	; ????
     282:	44 dc       	rcall	.-1912   	;  0xfffffb0c
     284:	07 10       	cpse	r0, r7
     286:	00 34       	cpi	r16, 0x40	; 64
     288:	2a 53       	subi	r18, 0x3A	; 58
     28a:	3f 07       	cpc	r19, r31
     28c:	81 0d       	add	r24, r1
     28e:	42 60       	ori	r20, 0x02	; 2
     290:	83 10       	cpse	r8, r3
     292:	d8 20       	and	r13, r8
     294:	04 36       	cpi	r16, 0x64	; 100
     296:	08 81       	ld	r16, Y
     298:	0d 42       	sbci	r16, 0x2D	; 45
     29a:	60 83       	st	Z, r22
     29c:	10 d8       	rcall	.-4064   	;  0xfffff2be
     29e:	20 04       	cpc	r2, r0
     2a0:	36 08       	sbc	r3, r6
     2a2:	81 0d       	add	r24, r1
     2a4:	42 60       	ori	r20, 0x02	; 2
     2a6:	83 10       	cpse	r8, r3
     2a8:	d8 20       	and	r13, r8
     2aa:	62 70       	andi	r22, 0x02	; 2
     2ac:	fc ef       	ldi	r31, 0xFC	; 252
     2ae:	03 08       	sbc	r0, r3
     2b0:	00 35       	cpi	r16, 0x50	; 80
     2b2:	14 53       	subi	r17, 0x34	; 52
     2b4:	3f 87       	std	Y+15, r19	; 0x0f
     2b6:	48 44       	sbci	r20, 0x48	; 72
     2b8:	42 88       	ldd	r4, Z+18	; 0x12
     2ba:	e2 2f       	mov	r30, r18
     2bc:	46 22       	and	r4, r22
     2be:	82 e3       	ldi	r24, 0x32	; 50
     2c0:	4f c4       	rjmp	.+2206   	;  0xb60
     2c2:	7d 00       	.word	0x007d	; ????
     2c4:	01 36       	cpi	r16, 0x61	; 97
     2c6:	28 53       	subi	r18, 0x38	; 56
     2c8:	3f 87       	std	Y+15, r19	; 0x0f
     2ca:	48 44       	sbci	r20, 0x48	; 72
     2cc:	42 88       	ldd	r4, Z+18	; 0x12
     2ce:	e2 2f       	mov	r30, r18
     2d0:	46 22       	and	r4, r22
     2d2:	12 02       	muls	r17, r18
     2d4:	1b 84       	ldd	r1, Y+11	; 0x0b
     2d6:	c0 06       	cpc	r12, r16
     2d8:	21 b0       	in	r2, 0x01	; 1
     2da:	41 08       	sbc	r4, r1
     2dc:	6c 10       	cpse	r6, r12
     2de:	02 1b       	sub	r16, r18
     2e0:	84 c0       	rjmp	.+264    	;  0x3ea
     2e2:	06 21       	and	r16, r6
     2e4:	b0 41       	sbci	r27, 0x10	; 16
     2e6:	08 6c       	ori	r16, 0xC8	; 200
     2e8:	10 71       	andi	r17, 0x10	; 16
     2ea:	1f 40       	sbci	r17, 0x0F	; 15
     2ec:	00 37       	cpi	r16, 0x70	; 112
     2ee:	0e 53       	subi	r16, 0x3E	; 62
     2f0:	3f 0b       	sbc	r19, r31
     2f2:	68 40       	sbci	r22, 0x08	; 8
     2f4:	70 fc       	sbrc	r7, 0
     2f6:	ff 7f       	andi	r31, 0xFF	; 255
     2f8:	1f 40       	sbci	r17, 0x0F	; 15
     2fa:	00 38       	cpi	r16, 0x80	; 128
     2fc:	3c 53       	subi	r19, 0x3C	; 60
     2fe:	3f 87       	std	Y+15, r19	; 0x0f
     300:	48 44       	sbci	r20, 0x48	; 72
     302:	42 60       	ori	r20, 0x02	; 2
     304:	83 10       	cpse	r8, r3
     306:	d8 20       	and	r13, r8
     308:	04 36       	cpi	r16, 0x64	; 100
     30a:	08 81       	ld	r16, Y
     30c:	0d 42       	sbci	r16, 0x2D	; 45
     30e:	60 83       	st	Z, r22
     310:	10 d8       	rcall	.-4064   	;  0xfffff332
     312:	20 04       	cpc	r2, r0
     314:	36 08       	sbc	r3, r6
     316:	81 0d       	add	r24, r1
     318:	42 60       	ori	r20, 0x02	; 2
     31a:	83 88       	ldd	r8, Z+19	; 0x13
     31c:	09 81       	ldd	r16, Y+1	; 0x01
     31e:	0d 42       	sbci	r16, 0x2D	; 45
     320:	60 83       	st	Z, r22
     322:	10 d8       	rcall	.-4064   	;  0xfffff344
     324:	20 04       	cpc	r2, r0
     326:	36 08       	sbc	r3, r6
     328:	81 0d       	add	r24, r1
     32a:	42 60       	ori	r20, 0x02	; 2
     32c:	83 10       	cpse	r8, r3
     32e:	d8 20       	and	r13, r8
     330:	04 36       	cpi	r16, 0x64	; 100
     332:	88 b8       	out	0x08, r8	; 8
     334:	0f 20       	and	r0, r15
     336:	00 39       	cpi	r16, 0x90	; 144
     338:	28 53       	subi	r18, 0x38	; 56
     33a:	3f 87       	std	Y+15, r19	; 0x0f
     33c:	48 44       	sbci	r20, 0x48	; 72
     33e:	42 60       	ori	r20, 0x02	; 2
     340:	83 10       	cpse	r8, r3
     342:	d8 20       	and	r13, r8
     344:	04 36       	cpi	r16, 0x64	; 100
     346:	08 81       	ld	r16, Y
     348:	0d 42       	sbci	r16, 0x2D	; 45
     34a:	60 83       	st	Z, r22
     34c:	10 d8       	rcall	.-4064   	;  0xfffff36e
     34e:	20 04       	cpc	r2, r0
     350:	36 08       	sbc	r3, r6
     352:	81 0d       	add	r24, r1
     354:	42 60       	ori	r20, 0x02	; 2
     356:	83 88       	ldd	r8, Z+19	; 0x13
     358:	c1 f1       	breq	.+112    	;  0x3ca
     35a:	27 e2       	ldi	r18, 0x27	; 39
     35c:	3e 80       	ldd	r3, Y+6	; 0x06
     35e:	00 3a       	cpi	r16, 0xA0	; 160
     360:	11 53       	subi	r17, 0x31	; 49
     362:	3f 7f       	andi	r19, 0xFF	; 255
     364:	f0 44       	sbci	r31, 0x40	; 64
     366:	e1 ca       	rjmp	.-2622   	;  0xfffff92a
     368:	7d 70       	andi	r23, 0x0D	; 13
     36a:	a4 70       	andi	r26, 0x04	; 4
     36c:	e5 3e       	cpi	r30, 0xE5	; 229
     36e:	00 01       	movw	r0, r0
     370:	00 00       	nop
     372:	00 04       	cpc	r0, r0
     374:	ff ff       	.word	0xffff	; ????
     376:	00 00       	nop
     378:	40 02       	muls	r20, r16
     37a:	03 02       	muls	r16, r19
     37c:	04 04       	cpc	r0, r4
     37e:	01 02       	muls	r16, r17
     380:	05 08       	sbc	r0, r5
     382:	0b 00       	.word	0x000b	; ????
     384:	01 0c       	add	r0, r1
     386:	00 0c       	add	r0, r0
     388:	02 01       	movw	r0, r4
     38a:	4e 00       	.word	0x004e	; ????
     38c:	00 03       	mulsu	r16, r16
     38e:	4d 20       	and	r4, r13
     390:	07 b8       	out	0x07, r0	; 7
     392:	c7 e7       	ldi	r28, 0x77	; 119
     394:	ff 08       	sbc	r15, r15
     396:	21 07       	cpc	r18, r17
     398:	b8 c7       	rjmp	.+3952   	;  0x130a
     39a:	e7 ff       	sbrs	r30, 7
     39c:	08 22       	and	r0, r24
     39e:	07 b8       	out	0x07, r0	; 7
     3a0:	c7 e7       	ldi	r28, 0x77	; 119
     3a2:	ff 08       	sbc	r15, r15
     3a4:	23 07       	cpc	r18, r19
     3a6:	b8 c7       	rjmp	.+3952   	;  0x1318
     3a8:	e7 ff       	sbrs	r30, 7
     3aa:	08 24       	eor	r0, r8
     3ac:	07 b8       	out	0x07, r0	; 7
     3ae:	c7 e7       	ldi	r28, 0x77	; 119
     3b0:	ff 08       	sbc	r15, r15
     3b2:	25 07       	cpc	r18, r21
     3b4:	b8 c7       	rjmp	.+3952   	;  0x1326
     3b6:	e7 ff       	sbrs	r30, 7
     3b8:	08 26       	eor	r0, r24
     3ba:	07 b8       	out	0x07, r0	; 7
     3bc:	c7 e7       	ldi	r28, 0x77	; 119
     3be:	ff 08       	sbc	r15, r15
     3c0:	27 07       	cpc	r18, r23
     3c2:	b8 c7       	rjmp	.+3952   	;  0x1334
     3c4:	e7 ff       	sbrs	r30, 7
     3c6:	08 28       	or	r0, r8
     3c8:	0a b8       	out	0x0a, r0	; 10
     3ca:	c7 51       	subi	r28, 0x17	; 23
     3cc:	f3 7e       	andi	r31, 0xE3	; 227
     3ce:	47 74       	andi	r20, 0x47	; 71
     3d0:	18 29       	or	r17, r8
     3d2:	0a b8       	out	0x0a, r0	; 10
     3d4:	c7 d3       	rcall	.+1934   	;  0xb64
     3d6:	91 bc       	out	0x21, r9	; 33
     3d8:	5f 75       	andi	r21, 0x5F	; 95
     3da:	10 2a       	or	r1, r16
     3dc:	0c b8       	out	0x0c, r0	; 12
     3de:	c7 69       	ori	r28, 0x97	; 151
     3e0:	9c e3       	ldi	r25, 0x3C	; 60
     3e2:	31 a9       	ldd	r19, Z+49	; 0x31
     3e4:	f3 0b       	sbc	r31, r19
     3e6:	00 2b       	or	r16, r16
     3e8:	0c b8       	out	0x0c, r0	; 12
     3ea:	c7 07       	cpc	r28, r23
     3ec:	f3 e2       	ldi	r31, 0x23	; 35
     3ee:	30 84       	ldd	r3, Z+8	; 0x08
     3f0:	79 9d       	mul	r23, r9
     3f2:	03 2c       	mov	r0, r3
     3f4:	08 b8       	out	0x08, r0	; 8
     3f6:	c7 8b       	std	Z+23, r28	; 0x17
     3f8:	73 fe       	sbrs	r7, 3
     3fa:	07 2d       	mov	r16, r7
     3fc:	09 b8       	out	0x09, r0	; 9
     3fe:	c7 e7       	ldi	r28, 0x77	; 119
     400:	38 0c       	add	r3, r8
     402:	39 3f       	cpi	r19, 0xF9	; 249
     404:	2e 09       	sbc	r18, r14
     406:	b8 c7       	rjmp	.+3952   	;  0x1378
     408:	e7 df       	rcall	.-50     	;  0x3d8
     40a:	64 1d       	adc	r22, r4
     40c:	05 2f       	mov	r16, r21
     40e:	0c b8       	out	0x0c, r0	; 12
     410:	c7 ae       	std	Z+63, r12	; 0x3f
     412:	c7 f5       	brid	.+112    	;  0x484
     414:	b8 1e       	adc	r11, r24
     416:	e7 14       	cp	r14, r7
     418:	00 30       	cpi	r16, 0x00	; 0
     41a:	14 b8       	out	0x04, r1	; 4
     41c:	c7 38       	cpi	r28, 0x87	; 135
     41e:	85 51       	subi	r24, 0x15	; 21
     420:	18 85       	ldd	r17, Y+8	; 0x08
     422:	51 18       	sub	r5, r1
     424:	85 51       	subi	r24, 0x15	; 21
     426:	18 85       	ldd	r17, Y+8	; 0x08
     428:	51 18       	sub	r5, r1
     42a:	0d 3b       	cpi	r16, 0xBD	; 189
     42c:	06 31       	cpi	r16, 0x16	; 22
     42e:	08 b8       	out	0x08, r0	; 8
     430:	c7 d4       	rcall	.+2446   	;  0xdc0
     432:	fb 77       	andi	r31, 0x7B	; 123
     434:	0c 32       	cpi	r16, 0x2C	; 44
     436:	0d b8       	out	0x0d, r0	; 13
     438:	c7 b8       	out	0x07, r12	; 7
     43a:	77 1a       	sub	r7, r23
     43c:	a6 bc       	out	0x26, r10	; 38
     43e:	3e ec       	ldi	r19, 0xCE	; 206
     440:	18 00       	.word	0x0018	; ????
     442:	33 0c       	add	r3, r3
     444:	b8 c7       	rjmp	.+3952   	;  0x13b6
     446:	b8 37       	cpi	r27, 0x78	; 120
     448:	0e 79       	andi	r16, 0x9E	; 158
     44a:	a7 61       	ori	r26, 0x17	; 23
     44c:	c7 00       	.word	0x00c7	; ????
     44e:	34 10       	cpse	r3, r4
     450:	b8 c7       	rjmp	.+3952   	;  0x13c2
     452:	08 a3       	std	Y+32, r16	; 0x20
     454:	30 0a       	sbc	r3, r16
     456:	a3 30       	cpi	r26, 0x03	; 3
     458:	0a a3       	std	Y+34, r16	; 0x22
     45a:	61 ef       	ldi	r22, 0xF1	; 241
     45c:	8e 01       	movw	r16, r28
     45e:	35 0d       	add	r19, r5
     460:	b8 c7       	rjmp	.+3952   	;  0x13d2
     462:	38 e5       	ldi	r19, 0x58	; 88
     464:	f5 61       	ori	r31, 0x15	; 21
     466:	ef 34       	cpi	r30, 0x4F	; 79
     468:	ec 18       	sub	r14, r12
     46a:	00 36       	cpi	r16, 0x60	; 96
     46c:	11 b8       	out	0x01, r1	; 1
     46e:	c7 38       	cpi	r28, 0x87	; 135
     470:	e5 f5       	brhc	.+120    	;  0x4ea
     472:	61 0a       	sbc	r6, r17
     474:	a3 30       	cpi	r26, 0x03	; 3
     476:	0a a3       	std	Y+34, r16	; 0x22
     478:	30 1a       	sub	r3, r16
     47a:	76 0c       	add	r7, r6
     47c:	37 09       	sbc	r19, r7
     47e:	b8 c7       	rjmp	.+3952   	;  0x13f0
     480:	b8 f7       	brcc	.-18     	;  0x470
     482:	ef 18       	sub	r14, r15
     484:	00 38       	cpi	r16, 0x80	; 128
     486:	14 b8       	out	0x04, r1	; 4
     488:	c7 38       	cpi	r28, 0x87	; 135
     48a:	85 51       	subi	r24, 0x15	; 21
     48c:	18 85       	ldd	r17, Y+8	; 0x08
     48e:	d1 30       	cpi	r29, 0x01	; 1
     490:	85 51       	subi	r24, 0x15	; 21
     492:	18 85       	ldd	r17, Y+8	; 0x08
     494:	51 18       	sub	r5, r1
     496:	0d 3b       	cpi	r16, 0xBD	; 189
     498:	06 39       	cpi	r16, 0x96	; 150
     49a:	0f b8       	out	0x0f, r0	; 15
     49c:	c7 38       	cpi	r28, 0x87	; 135
     49e:	85 51       	subi	r24, 0x15	; 21
     4a0:	18 85       	ldd	r17, Y+8	; 0x08
     4a2:	d1 b0       	in	r13, 0x01	; 1
     4a4:	77 1a       	sub	r7, r23
     4a6:	76 0c       	add	r7, r6
     4a8:	3a 0b       	sbc	r19, r26
     4aa:	b8 c7       	rjmp	.+3952   	;  0x141c
     4ac:	67 95       	ror	r22
     4ae:	75 4e       	sbci	r23, 0xE5	; 229
     4b0:	b2 8e       	std	Z+26, r11	; 0x1a
     4b2:	02 3b       	cpi	r16, 0xB2	; 178
     4b4:	07 b8       	out	0x07, r0	; 7
     4b6:	c7 e7       	ldi	r28, 0x77	; 119
     4b8:	ff 08       	sbc	r15, r15
     4ba:	3c 07       	cpc	r19, r28
     4bc:	b8 c7       	rjmp	.+3952   	;  0x142e
     4be:	e7 ff       	sbrs	r30, 7
     4c0:	08 3d       	cpi	r16, 0xD8	; 216
     4c2:	07 b8       	out	0x07, r0	; 7
     4c4:	c7 e7       	ldi	r28, 0x77	; 119
     4c6:	ff 08       	sbc	r15, r15
     4c8:	3e 07       	cpc	r19, r30
     4ca:	b8 c7       	rjmp	.+3952   	;  0x143c
     4cc:	e7 ff       	sbrs	r30, 7
     4ce:	08 3f       	cpi	r16, 0xF8	; 248
     4d0:	07 b8       	out	0x07, r0	; 7
     4d2:	c7 e7       	ldi	r28, 0x77	; 119
     4d4:	ff 08       	sbc	r15, r15
     4d6:	40 07       	cpc	r20, r16
     4d8:	b8 c7       	rjmp	.+3952   	;  0x144a
     4da:	e7 ff       	sbrs	r30, 7
     4dc:	08 41       	sbci	r16, 0x18	; 24
     4de:	16 b8       	out	0x06, r1	; 6
     4e0:	c7 38       	cpi	r28, 0x87	; 135
     4e2:	24 69       	ori	r18, 0x94	; 148
     4e4:	92 26       	eor	r9, r18
     4e6:	69 92       	st	Y+, r6
     4e8:	26 c3       	rjmp	.+1612   	;  0xb36
     4ea:	90 a4       	ldd	r9, Z+40	; 0x28
     4ec:	49 9a       	sbi	0x09, 1	; 9
     4ee:	a4 49       	sbci	r26, 0x94	; 148
     4f0:	9a 43       	sbci	r25, 0x3A	; 58
     4f2:	00 42       	sbci	r16, 0x20	; 32
     4f4:	16 b8       	out	0x06, r1	; 6
     4f6:	c7 38       	cpi	r28, 0x87	; 135
     4f8:	24 69       	ori	r18, 0x94	; 148
     4fa:	92 26       	eor	r9, r18
     4fc:	69 32       	cpi	r22, 0x29	; 41
     4fe:	4c 69       	ori	r20, 0x9C	; 156
     500:	92 26       	eor	r9, r18
     502:	69 92       	st	Y+, r6
     504:	26 c3       	rjmp	.+1612   	;  0xb52
     506:	90 43       	sbci	r25, 0x30	; 48
     508:	00 43       	sbci	r16, 0x30	; 48
     50a:	0c b8       	out	0x0c, r0	; 12
     50c:	c7 38       	cpi	r28, 0x87	; 135
     50e:	24 79       	andi	r18, 0x94	; 148
     510:	bf 0f       	add	r27, r31
     512:	43 0e       	add	r4, r19
     514:	01 44       	sbci	r16, 0x41	; 65
     516:	14 b8       	out	0x04, r1	; 4
     518:	c7 38       	cpi	r28, 0x87	; 135
     51a:	a5 49       	sbci	r26, 0x95	; 149
     51c:	9a a4       	ldd	r9, Y+42	; 0x2a
     51e:	49 9a       	sbi	0x09, 1	; 9
     520:	a4 49       	sbci	r26, 0x94	; 148
     522:	9a a4       	ldd	r9, Y+42	; 0x2a
     524:	49 9a       	sbi	0x09, 1	; 9
     526:	0c 3b       	cpi	r16, 0xBC	; 188
     528:	06 45       	sbci	r16, 0x56	; 86
     52a:	0f b8       	out	0x0f, r0	; 15
     52c:	c7 38       	cpi	r28, 0x87	; 135
     52e:	24 79       	andi	r18, 0x94	; 148
     530:	7d d0       	rcall	.+250    	;  0x62c
     532:	f2 f6       	brpl	.-68     	;  0x4f0
     534:	61 c8       	rjmp	.-3902   	;  0xfffff5f8
     536:	21 00       	.word	0x0021	; ????
     538:	46 0d       	add	r20, r6
     53a:	b8 c7       	rjmp	.+3952   	;  0x14ac
     53c:	38 24       	eor	r3, r8
     53e:	79 7d       	andi	r23, 0xD9	; 217
     540:	d0 f2       	brcs	.-76     	;  0x4f6
     542:	ee 14       	cp	r14, r14
     544:	00 47       	sbci	r16, 0x70	; 112
     546:	13 b8       	out	0x03, r1	; 3
     548:	c7 38       	cpi	r28, 0x87	; 135
     54a:	24 79       	andi	r18, 0x94	; 148
     54c:	d3 90       	.word	0x90d3	; ????
     54e:	a4 49       	sbci	r26, 0x94	; 148
     550:	9a a4       	ldd	r9, Y+42	; 0x2a
     552:	49 9a       	sbi	0x09, 1	; 9
     554:	0c 43       	sbci	r16, 0x3C	; 60
     556:	0e 01       	movw	r0, r28
     558:	48 16       	cp	r4, r24
     55a:	b8 c7       	rjmp	.+3952   	;  0x14cc
     55c:	48 93       	.word	0x9348	; ????
     55e:	34 49       	sbci	r19, 0x94	; 148
     560:	93 34       	cpi	r25, 0x43	; 67
     562:	19 86       	std	Y+9, r1	; 0x09
     564:	24 4d       	sbci	r18, 0xD4	; 212
     566:	d2 24       	eor	r13, r2
     568:	4d d2       	rcall	.+1178   	;  0xa04
     56a:	24 cd       	rjmp	.-1464   	;  0xffffffb4
     56c:	21 00       	.word	0x0021	; ????
     56e:	49 08       	sbc	r4, r9
     570:	b8 c7       	rjmp	.+3952   	;  0x14e2
     572:	cb fb       	.word	0xfbcb	; ????
     574:	77 14       	cp	r7, r7
     576:	4a 0f       	add	r20, r26
     578:	b8 c7       	rjmp	.+3952   	;  0x14ea
     57a:	1b f2       	brvs	.-122    	;  0x502
     57c:	5e d2       	rcall	.+1212   	;  0xa3a
     57e:	24 4d       	sbci	r18, 0xD4	; 212
     580:	d2 68       	ori	r29, 0x82	; 130
     582:	d0 31       	cpi	r29, 0x10	; 16
     584:	00 4b       	sbci	r16, 0xB0	; 176
     586:	13 b8       	out	0x03, r1	; 3
     588:	c7 48       	sbci	r28, 0x87	; 135
     58a:	93 30       	cpi	r25, 0x03	; 3
     58c:	ca 4a       	sbci	r28, 0xAA	; 170
     58e:	e1 9a       	sbi	0x1c, 1	; 28
     590:	a4 51       	subi	r26, 0x14	; 20
     592:	98 15       	cp	r25, r8
     594:	a3 34       	cpi	r26, 0x43	; 67
     596:	87 00       	.word	0x0087	; ????
     598:	4c 0b       	sbc	r20, r28
     59a:	b8 c7       	rjmp	.+3952   	;  0x150c
     59c:	c8 fb       	.word	0xfbc8	; ????
     59e:	fb 30       	cpi	r31, 0x0B	; 11
     5a0:	e4 10       	cpse	r14, r4
     5a2:	00 4d       	sbci	r16, 0xD0	; 208
     5a4:	14 b8       	out	0x04, r1	; 4
     5a6:	c7 48       	sbci	r28, 0x87	; 135
     5a8:	13 4d       	sbci	r17, 0xD3	; 211
     5aa:	e9 a9       	ldd	r30, Y+49	; 0x31
     5ac:	92 26       	eor	r9, r18
     5ae:	69 92       	st	Y+, r6
     5b0:	26 69       	ori	r18, 0x96	; 150
     5b2:	92 26       	eor	r9, r18
     5b4:	69 0e       	add	r6, r25
     5b6:	01 4e       	sbci	r16, 0xE1	; 225
     5b8:	16 b8       	out	0x06, r1	; 6
     5ba:	c7 10       	cpse	r12, r7
     5bc:	13 31       	cpi	r17, 0x13	; 19
     5be:	a9 25       	eor	r26, r9
     5c0:	b5 24       	eor	r11, r5
     5c2:	aa 44       	sbci	r26, 0x4A	; 74
     5c4:	95 2c       	mov	r9, r5
     5c6:	a9 25       	eor	r26, r9
     5c8:	45 25       	eor	r20, r5
     5ca:	d4 21       	and	r29, r4
     5cc:	00 4f       	sbci	r16, 0xF0	; 240
     5ce:	15 b8       	out	0x05, r1	; 5
     5d0:	c7 19       	sub	r28, r7
     5d2:	a4 34       	cpi	r26, 0x44	; 68
     5d4:	49 93       	st	Y+, r20
     5d6:	34 49       	sbci	r19, 0x94	; 148
     5d8:	93 34       	cpi	r25, 0x43	; 67
     5da:	49 93       	st	Y+, r20
     5dc:	34 49       	sbci	r19, 0x94	; 148
     5de:	a3 41       	sbci	r26, 0x13	; 19
     5e0:	c7 00       	.word	0x00c7	; ????
     5e2:	50 10       	cpse	r5, r0
     5e4:	b8 c7       	rjmp	.+3952   	;  0x1556
     5e6:	38 24       	eor	r3, r8
     5e8:	69 92       	st	Y+, r6
     5ea:	26 69       	ori	r18, 0x96	; 150
     5ec:	32 0c       	add	r3, r2
     5ee:	49 de       	rcall	.-878    	;  0x282
     5f0:	9d 02       	muls	r25, r29
     5f2:	51 15       	cp	r21, r1
     5f4:	b8 c7       	rjmp	.+3952   	;  0x1566
     5f6:	19 b2       	in	r1, 0x19	; 25
     5f8:	30 0a       	sbc	r3, r16
     5fa:	a3 30       	cpi	r26, 0x03	; 3
     5fc:	0a a3       	std	Y+34, r16	; 0x22
     5fe:	30 0a       	sbc	r3, r16
     600:	a3 30       	cpi	r26, 0x03	; 3
     602:	0a b3       	in	r16, 0x1a	; 26
     604:	61 87       	std	Z+9, r22	; 0x09
     606:	00 52       	subi	r16, 0x20	; 32
     608:	15 b8       	out	0x05, r1	; 5
     60a:	c7 38       	cpi	r28, 0x87	; 135
     60c:	24 69       	ori	r18, 0x94	; 148
     60e:	92 26       	eor	r9, r18
     610:	69 32       	cpi	r22, 0x29	; 41
     612:	0c 49       	sbci	r16, 0x9C	; 156
     614:	35 0a       	sbc	r3, r21
     616:	b3 62       	ori	r27, 0x23	; 35
     618:	94 e6       	ldi	r25, 0x64	; 100
     61a:	10 00       	.word	0x0010	; ????
     61c:	53 0f       	add	r21, r19
     61e:	b8 c7       	rjmp	.+3952   	;  0x1590
     620:	38 24       	eor	r3, r8
     622:	79 fb       	.word	0xfb79	; ????
     624:	30 e4       	ldi	r19, 0x40	; 64
     626:	2d c3       	rjmp	.+1626   	;  0xc82
     628:	90 43       	sbci	r25, 0x30	; 48
     62a:	00 54       	subi	r16, 0x40	; 64
     62c:	0a b8       	out	0x0a, r0	; 10
     62e:	c7 38       	cpi	r28, 0x87	; 135
     630:	84 79       	andi	r24, 0x94	; 148
     632:	bf 93       	push	r27
     634:	01 55       	subi	r16, 0x51	; 81
     636:	16 b8       	out	0x06, r1	; 6
     638:	c7 48       	sbci	r28, 0x87	; 135
     63a:	93 34       	cpi	r25, 0x43	; 67
     63c:	49 93       	st	Y+, r20
     63e:	34 49       	sbci	r19, 0x94	; 148
     640:	93 34       	cpi	r25, 0x43	; 67
     642:	49 93       	st	Y+, r20
     644:	34 49       	sbci	r19, 0x94	; 148
     646:	93 61       	ori	r25, 0x13	; 19
     648:	c8 21       	and	r28, r8
     64a:	00 56       	subi	r16, 0x60	; 96
     64c:	12 b8       	out	0x02, r1	; 2
     64e:	c7 48       	sbci	r28, 0x87	; 135
     650:	93 34       	cpi	r25, 0x43	; 67
     652:	49 a3       	std	Y+33, r20	; 0x21
     654:	ac 4d       	sbci	r26, 0xDC	; 220
     656:	11 93       	st	Z+, r17
     658:	34 89       	ldd	r19, Z+20	; 0x14
     65a:	f3 1c       	adc	r15, r3
     65c:	05 57       	subi	r16, 0x75	; 117
     65e:	14 b8       	out	0x04, r1	; 4
     660:	c7 48       	sbci	r28, 0x87	; 135
     662:	93 34       	cpi	r25, 0x43	; 67
     664:	49 93       	st	Y+, r20
     666:	34 49       	sbci	r19, 0x94	; 148
     668:	93 a8       	ldd	r9, Z+51	; 0x33
     66a:	12 55       	subi	r17, 0x52	; 82
     66c:	fa 8b       	std	Y+18, r31	; 0x12
     66e:	a6 43       	sbci	r26, 0x36	; 54
     670:	00 58       	subi	r16, 0x80	; 128
     672:	11 b8       	out	0x01, r1	; 1
     674:	c7 48       	sbci	r28, 0x87	; 135
     676:	a3 ac       	ldd	r10, Z+59	; 0x3b
     678:	31 89       	ldd	r19, Z+17	; 0x11
     67a:	f3 38       	cpi	r31, 0x83	; 131
     67c:	09 b3       	in	r16, 0x19	; 25
     67e:	a6 34       	cpi	r26, 0x46	; 70
     680:	87 00       	.word	0x0087	; ????
     682:	59 10       	cpse	r5, r9
     684:	b8 c7       	rjmp	.+3952   	;  0x15f6
     686:	48 93       	.word	0x9348	; ????
     688:	34 49       	sbci	r19, 0x94	; 148
     68a:	93 34       	cpi	r25, 0x43	; 67
     68c:	19 86       	std	Y+9, r1	; 0x09
     68e:	30 ef       	ldi	r19, 0xF0	; 240
     690:	8e 02       	muls	r24, r30
     692:	5a 0d       	add	r21, r10
     694:	b8 c7       	rjmp	.+3952   	;  0x1606
     696:	38 e4       	ldi	r19, 0x48	; 72
     698:	b1 ea       	ldi	r27, 0xA1	; 161
     69a:	73 3e       	cpi	r23, 0xE3	; 227
     69c:	0c 39       	cpi	r16, 0x9C	; 156
     69e:	04 5b       	subi	r16, 0xB4	; 180
     6a0:	0b b8       	out	0x0b, r0	; 11
     6a2:	c7 18       	sub	r12, r7
     6a4:	c2 bc       	out	0x22, r12	; 34
     6a6:	df 87       	std	Y+15, r29	; 0x0f
     6a8:	1c 05       	cpc	r17, r12
     6aa:	5c 11       	cpse	r21, r12
     6ac:	b8 c7       	rjmp	.+3952   	;  0x161e
     6ae:	c8 91       	.word	0x91c8	; ????
     6b0:	3c 47       	sbci	r19, 0x7C	; 124
     6b2:	f2 1c       	adc	r15, r2
     6b4:	c9 73       	andi	r28, 0x39	; 57
     6b6:	24 cf       	rjmp	.-440    	;  0x500
     6b8:	91 1c       	adc	r9, r1
     6ba:	03 5d       	subi	r16, 0xD3	; 211
     6bc:	0b b8       	out	0x0b, r0	; 11
     6be:	c7 1a       	sub	r12, r23
     6c0:	f2 fe       	sbrs	r15, 2
     6c2:	38 e4       	ldi	r19, 0x48	; 72
     6c4:	18 00       	.word	0x0018	; ????
     6c6:	5e 0b       	sbc	r21, r30
     6c8:	b8 c7       	rjmp	.+3952   	;  0x163a
     6ca:	8b 93       	.word	0x938b	; ????
     6cc:	30 cb       	rjmp	.-2464   	;  0xfffffd2e
     6ce:	f9 37       	cpi	r31, 0x79	; 121
     6d0:	00 5f       	subi	r16, 0xF0	; 240
     6d2:	09 b8       	out	0x09, r0	; 9
     6d4:	c7 e7       	ldi	r28, 0x77	; 119
     6d6:	3f 0d       	add	r19, r15
     6d8:	3b 06       	cpc	r3, r27
     6da:	00 00       	nop
     6dc:	00 04       	cpc	r0, r0
     6de:	ff ff       	.word	0xffff	; ????
     6e0:	00 00       	nop
     6e2:	11 24       	eor	r1, r1
     6e4:	1f be       	out	0x3f, r1	; 63
     6e6:	cf ef       	ldi	r28, 0xFF	; 255
     6e8:	d8 e0       	ldi	r29, 0x08	; 8
     6ea:	de bf       	out	0x3e, r29	; 62
     6ec:	cd bf       	out	0x3d, r28	; 61
     6ee:	11 e0       	ldi	r17, 0x01	; 1
     6f0:	a0 e0       	ldi	r26, 0x00	; 0
     6f2:	b1 e0       	ldi	r27, 0x01	; 1
     6f4:	ea e0       	ldi	r30, 0x0A	; 10
     6f6:	f4 e3       	ldi	r31, 0x34	; 52
     6f8:	02 c0       	rjmp	.+4      	;  0x6fe
     6fa:	05 90       	lpm	r0, Z+
     6fc:	0d 92       	st	X+, r0
     6fe:	a4 3b       	cpi	r26, 0xB4	; 180
     700:	b1 07       	cpc	r27, r17
     702:	d9 f7       	brne	.-10     	;  0x6fa
     704:	26 e0       	ldi	r18, 0x06	; 6
     706:	a4 eb       	ldi	r26, 0xB4	; 180
     708:	b1 e0       	ldi	r27, 0x01	; 1
     70a:	01 c0       	rjmp	.+2      	;  0x70e
     70c:	1d 92       	st	X+, r1
     70e:	a5 3b       	cpi	r26, 0xB5	; 181
     710:	b2 07       	cpc	r27, r18
     712:	e1 f7       	brne	.-8      	;  0x70c
     714:	0e 94 5b 13 	call	0x26b6	;  0x26b6
     718:	0c 94 03 1a 	jmp	0x3406	;  0x3406
     71c:	0c 94 00 00 	jmp	0	;  0x0
     720:	2f 92       	push	r2
     722:	3f 92       	push	r3
     724:	4f 92       	push	r4
     726:	5f 92       	push	r5
     728:	6f 92       	push	r6
     72a:	7f 92       	push	r7
     72c:	8f 92       	push	r8
     72e:	9f 92       	push	r9
     730:	af 92       	push	r10
     732:	bf 92       	push	r11
     734:	cf 92       	push	r12
     736:	df 92       	push	r13
     738:	ef 92       	push	r14
     73a:	ff 92       	push	r15
     73c:	0f 93       	push	r16
     73e:	1f 93       	push	r17
     740:	cf 93       	push	r28
     742:	df 93       	push	r29
     744:	cd b7       	in	r28, 0x3d	; 61
     746:	de b7       	in	r29, 0x3e	; 62
     748:	28 97       	sbiw	r28, 0x08	; 8
     74a:	0f b6       	in	r0, 0x3f	; 63
     74c:	f8 94       	cli
     74e:	de bf       	out	0x3e, r29	; 62
     750:	0f be       	out	0x3f, r0	; 63
     752:	cd bf       	out	0x3d, r28	; 61
     754:	98 87       	std	Y+8, r25	; 0x08
     756:	8f 83       	std	Y+7, r24	; 0x07
     758:	6b 01       	movw	r12, r22
     75a:	5a 01       	movw	r10, r20
     75c:	39 01       	movw	r6, r18
     75e:	28 01       	movw	r4, r16
     760:	1a 01       	movw	r2, r20
     762:	20 0e       	add	r2, r16
     764:	31 1e       	adc	r3, r17
     766:	4b 01       	movw	r8, r22
     768:	82 0e       	add	r8, r18
     76a:	93 1e       	adc	r9, r19
     76c:	81 01       	movw	r16, r2
     76e:	94 01       	movw	r18, r8
     770:	0e 94 2f 0b 	call	0x165e	;  0x165e
     774:	88 23       	and	r24, r24
     776:	09 f4       	brne	.+2      	;  0x77a
     778:	84 c0       	rjmp	.+264    	;  0x882
     77a:	96 01       	movw	r18, r12
     77c:	2e 0d       	add	r18, r14
     77e:	3f 1d       	adc	r19, r15
     780:	3a 83       	std	Y+2, r19	; 0x02
     782:	29 83       	std	Y+1, r18	; 0x01
     784:	c5 01       	movw	r24, r10
     786:	8e 0d       	add	r24, r14
     788:	9f 1d       	adc	r25, r15
     78a:	9c 83       	std	Y+4, r25	; 0x04
     78c:	8b 83       	std	Y+3, r24	; 0x03
     78e:	8e 18       	sub	r8, r14
     790:	9f 08       	sbc	r9, r15
     792:	94 01       	movw	r18, r8
     794:	21 50       	subi	r18, 0x01	; 1
     796:	31 09       	sbc	r19, r1
     798:	3e 83       	std	Y+6, r19	; 0x06
     79a:	2d 83       	std	Y+5, r18	; 0x05
     79c:	41 01       	movw	r8, r2
     79e:	8e 18       	sub	r8, r14
     7a0:	9f 08       	sbc	r9, r15
     7a2:	31 e0       	ldi	r19, 0x01	; 1
     7a4:	83 1a       	sub	r8, r19
     7a6:	91 08       	sbc	r9, r1
     7a8:	02 e0       	ldi	r16, 0x02	; 2
     7aa:	97 01       	movw	r18, r14
     7ac:	ac 01       	movw	r20, r24
     7ae:	69 81       	ldd	r22, Y+1	; 0x01
     7b0:	7a 81       	ldd	r23, Y+2	; 0x02
     7b2:	8f 81       	ldd	r24, Y+7	; 0x07
     7b4:	98 85       	ldd	r25, Y+8	; 0x08
     7b6:	0e 94 9b 05 	call	0xb36	;  0xb36
     7ba:	01 e0       	ldi	r16, 0x01	; 1
     7bc:	97 01       	movw	r18, r14
     7be:	4b 81       	ldd	r20, Y+3	; 0x03
     7c0:	5c 81       	ldd	r21, Y+4	; 0x04
     7c2:	6d 81       	ldd	r22, Y+5	; 0x05
     7c4:	7e 81       	ldd	r23, Y+6	; 0x06
     7c6:	8f 81       	ldd	r24, Y+7	; 0x07
     7c8:	98 85       	ldd	r25, Y+8	; 0x08
     7ca:	0e 94 9b 05 	call	0xb36	;  0xb36
     7ce:	04 e0       	ldi	r16, 0x04	; 4
     7d0:	97 01       	movw	r18, r14
     7d2:	a4 01       	movw	r20, r8
     7d4:	69 81       	ldd	r22, Y+1	; 0x01
     7d6:	7a 81       	ldd	r23, Y+2	; 0x02
     7d8:	8f 81       	ldd	r24, Y+7	; 0x07
     7da:	98 85       	ldd	r25, Y+8	; 0x08
     7dc:	0e 94 9b 05 	call	0xb36	;  0xb36
     7e0:	08 e0       	ldi	r16, 0x08	; 8
     7e2:	97 01       	movw	r18, r14
     7e4:	a4 01       	movw	r20, r8
     7e6:	6d 81       	ldd	r22, Y+5	; 0x05
     7e8:	7e 81       	ldd	r23, Y+6	; 0x06
     7ea:	8f 81       	ldd	r24, Y+7	; 0x07
     7ec:	98 85       	ldd	r25, Y+8	; 0x08
     7ee:	0e 94 9b 05 	call	0xb36	;  0xb36
     7f2:	83 01       	movw	r16, r6
     7f4:	0e 19       	sub	r16, r14
     7f6:	1f 09       	sbc	r17, r15
     7f8:	0e 19       	sub	r16, r14
     7fa:	1f 09       	sbc	r17, r15
     7fc:	c2 01       	movw	r24, r4
     7fe:	8e 19       	sub	r24, r14
     800:	9f 09       	sbc	r25, r15
     802:	9c 01       	movw	r18, r24
     804:	2e 19       	sub	r18, r14
     806:	3f 09       	sbc	r19, r15
     808:	79 01       	movw	r14, r18
     80a:	29 80       	ldd	r2, Y+1	; 0x01
     80c:	3a 80       	ldd	r3, Y+2	; 0x02
     80e:	3f ef       	ldi	r19, 0xFF	; 255
     810:	23 1a       	sub	r2, r19
     812:	33 0a       	sbc	r3, r19
     814:	8b 80       	ldd	r8, Y+3	; 0x03
     816:	9c 80       	ldd	r9, Y+4	; 0x04
     818:	8f ef       	ldi	r24, 0xFF	; 255
     81a:	88 1a       	sub	r8, r24
     81c:	98 0a       	sbc	r9, r24
     81e:	03 30       	cpi	r16, 0x03	; 3
     820:	11 05       	cpc	r17, r1
     822:	a8 f0       	brcs	.+42     	;  0x84e
     824:	02 50       	subi	r16, 0x02	; 2
     826:	11 09       	sbc	r17, r1
     828:	91 e0       	ldi	r25, 0x01	; 1
     82a:	49 1a       	sub	r4, r25
     82c:	51 08       	sbc	r5, r1
     82e:	98 01       	movw	r18, r16
     830:	a5 01       	movw	r20, r10
     832:	b1 01       	movw	r22, r2
     834:	8f 81       	ldd	r24, Y+7	; 0x07
     836:	98 85       	ldd	r25, Y+8	; 0x08
     838:	0e 94 ea 0a 	call	0x15d4	;  0x15d4
     83c:	a5 01       	movw	r20, r10
     83e:	44 0d       	add	r20, r4
     840:	55 1d       	adc	r21, r5
     842:	98 01       	movw	r18, r16
     844:	b1 01       	movw	r22, r2
     846:	8f 81       	ldd	r24, Y+7	; 0x07
     848:	98 85       	ldd	r25, Y+8	; 0x08
     84a:	0e 94 ea 0a 	call	0x15d4	;  0x15d4
     84e:	23 e0       	ldi	r18, 0x03	; 3
     850:	e2 16       	cp	r14, r18
     852:	f1 04       	cpc	r15, r1
     854:	b0 f0       	brcs	.+44     	;  0x882
     856:	32 e0       	ldi	r19, 0x02	; 2
     858:	e3 1a       	sub	r14, r19
     85a:	f1 08       	sbc	r15, r1
     85c:	81 e0       	ldi	r24, 0x01	; 1
     85e:	68 1a       	sub	r6, r24
     860:	71 08       	sbc	r7, r1
     862:	97 01       	movw	r18, r14
     864:	a4 01       	movw	r20, r8
     866:	b6 01       	movw	r22, r12
     868:	8f 81       	ldd	r24, Y+7	; 0x07
     86a:	98 85       	ldd	r25, Y+8	; 0x08
     86c:	0e 94 f0 0a 	call	0x15e0	;  0x15e0
     870:	b6 01       	movw	r22, r12
     872:	66 0d       	add	r22, r6
     874:	77 1d       	adc	r23, r7
     876:	97 01       	movw	r18, r14
     878:	a4 01       	movw	r20, r8
     87a:	8f 81       	ldd	r24, Y+7	; 0x07
     87c:	98 85       	ldd	r25, Y+8	; 0x08
     87e:	0e 94 f0 0a 	call	0x15e0	;  0x15e0
     882:	28 96       	adiw	r28, 0x08	; 8
     884:	0f b6       	in	r0, 0x3f	; 63
     886:	f8 94       	cli
     888:	de bf       	out	0x3e, r29	; 62
     88a:	0f be       	out	0x3f, r0	; 63
     88c:	cd bf       	out	0x3d, r28	; 61
     88e:	df 91       	pop	r29
     890:	cf 91       	pop	r28
     892:	1f 91       	pop	r17
     894:	0f 91       	pop	r16
     896:	ff 90       	pop	r15
     898:	ef 90       	pop	r14
     89a:	df 90       	pop	r13
     89c:	cf 90       	pop	r12
     89e:	bf 90       	pop	r11
     8a0:	af 90       	pop	r10
     8a2:	9f 90       	pop	r9
     8a4:	8f 90       	pop	r8
     8a6:	7f 90       	pop	r7
     8a8:	6f 90       	pop	r6
     8aa:	5f 90       	pop	r5
     8ac:	4f 90       	pop	r4
     8ae:	3f 90       	pop	r3
     8b0:	2f 90       	pop	r2
     8b2:	08 95       	ret
     8b4:	0f 93       	push	r16
     8b6:	1f 93       	push	r17
     8b8:	dc 01       	movw	r26, r24
     8ba:	ed 91       	ld	r30, X+
     8bc:	fc 91       	ld	r31, X
     8be:	11 97       	sbiw	r26, 0x01	; 1
     8c0:	20 89       	ldd	r18, Z+16	; 0x10
     8c2:	92 96       	adiw	r26, 0x22	; 34
     8c4:	0d 91       	ld	r16, X+
     8c6:	1c 91       	ld	r17, X
     8c8:	93 97       	sbiw	r26, 0x23	; 35
     8ca:	62 9f       	mul	r22, r18
     8cc:	b0 01       	movw	r22, r0
     8ce:	11 24       	eor	r1, r1
     8d0:	66 0f       	add	r22, r22
     8d2:	77 1f       	adc	r23, r23
     8d4:	66 0f       	add	r22, r22
     8d6:	77 1f       	adc	r23, r23
     8d8:	66 0f       	add	r22, r22
     8da:	77 1f       	adc	r23, r23
     8dc:	06 0f       	add	r16, r22
     8de:	17 1f       	adc	r17, r23
     8e0:	60 e0       	ldi	r22, 0x00	; 0
     8e2:	0e 94 9f 0e 	call	0x1d3e	;  0x1d3e
     8e6:	1f 91       	pop	r17
     8e8:	0f 91       	pop	r16
     8ea:	08 95       	ret
     8ec:	ef 92       	push	r14
     8ee:	ff 92       	push	r15
     8f0:	0f 93       	push	r16
     8f2:	1f 93       	push	r17
     8f4:	cf 93       	push	r28
     8f6:	df 93       	push	r29
     8f8:	8c 01       	movw	r16, r24
     8fa:	dc 01       	movw	r26, r24
     8fc:	94 96       	adiw	r26, 0x24	; 36
     8fe:	fc 90       	ld	r15, X
     900:	94 97       	sbiw	r26, 0x24	; 36
     902:	95 96       	adiw	r26, 0x25	; 37
     904:	dc 91       	ld	r29, X
     906:	95 97       	sbiw	r26, 0x25	; 37
     908:	ed 91       	ld	r30, X+
     90a:	fc 91       	ld	r31, X
     90c:	e1 88       	ldd	r14, Z+17	; 0x11
     90e:	c0 e0       	ldi	r28, 0x00	; 0
     910:	4d 2f       	mov	r20, r29
     912:	6c 2f       	mov	r22, r28
     914:	c8 01       	movw	r24, r16
     916:	0e 94 5a 04 	call	0x8b4	;  0x8b4
     91a:	cf 5f       	subi	r28, 0xFF	; 255
     91c:	df 5f       	subi	r29, 0xFF	; 255
     91e:	cf 15       	cp	r28, r15
     920:	10 f4       	brcc	.+4      	;  0x926
     922:	de 15       	cp	r29, r14
     924:	a8 f3       	brcs	.-22     	;  0x910
     926:	df 91       	pop	r29
     928:	cf 91       	pop	r28
     92a:	1f 91       	pop	r17
     92c:	0f 91       	pop	r16
     92e:	ff 90       	pop	r15
     930:	ef 90       	pop	r14
     932:	08 95       	ret
     934:	fc 01       	movw	r30, r24
     936:	a0 81       	ld	r26, Z
     938:	b1 81       	ldd	r27, Z+1	; 0x01
     93a:	50 96       	adiw	r26, 0x10	; 16
     93c:	9c 91       	ld	r25, X
     93e:	44 a1       	ldd	r20, Z+36	; 0x24
     940:	94 9f       	mul	r25, r20
     942:	a0 01       	movw	r20, r0
     944:	11 24       	eor	r1, r1
     946:	44 0f       	add	r20, r20
     948:	55 1f       	adc	r21, r21
     94a:	44 0f       	add	r20, r20
     94c:	55 1f       	adc	r21, r21
     94e:	44 0f       	add	r20, r20
     950:	55 1f       	adc	r21, r21
     952:	60 e0       	ldi	r22, 0x00	; 0
     954:	70 e0       	ldi	r23, 0x00	; 0
     956:	82 a1       	ldd	r24, Z+34	; 0x22
     958:	93 a1       	ldd	r25, Z+35	; 0x23
     95a:	0e 94 35 19 	call	0x326a	;  0x326a
     95e:	08 95       	ret
     960:	cf 93       	push	r28
     962:	df 93       	push	r29
     964:	ec 01       	movw	r28, r24
     966:	0e 94 76 04 	call	0x8ec	;  0x8ec
     96a:	ce 01       	movw	r24, r28
     96c:	0e 94 f9 0e 	call	0x1df2	;  0x1df2
     970:	df 91       	pop	r29
     972:	cf 91       	pop	r28
     974:	08 95       	ret
     976:	8f 92       	push	r8
     978:	9f 92       	push	r9
     97a:	af 92       	push	r10
     97c:	bf 92       	push	r11
     97e:	cf 92       	push	r12
     980:	df 92       	push	r13
     982:	ef 92       	push	r14
     984:	0f 93       	push	r16
     986:	1f 93       	push	r17
     988:	cf 93       	push	r28
     98a:	df 93       	push	r29
     98c:	5c 01       	movw	r10, r24
     98e:	6b 01       	movw	r12, r22
     990:	4a 01       	movw	r8, r20
     992:	e9 01       	movw	r28, r18
     994:	e0 fe       	sbrs	r14, 0
     996:	11 c0       	rjmp	.+34     	;  0x9ba
     998:	a8 01       	movw	r20, r16
     99a:	48 19       	sub	r20, r8
     99c:	59 09       	sbc	r21, r9
     99e:	b9 01       	movw	r22, r18
     9a0:	6c 0d       	add	r22, r12
     9a2:	7d 1d       	adc	r23, r13
     9a4:	0e 94 f6 0a 	call	0x15ec	;  0x15ec
     9a8:	a8 01       	movw	r20, r16
     9aa:	4c 19       	sub	r20, r12
     9ac:	5d 09       	sbc	r21, r13
     9ae:	b4 01       	movw	r22, r8
     9b0:	6c 0f       	add	r22, r28
     9b2:	7d 1f       	adc	r23, r29
     9b4:	c5 01       	movw	r24, r10
     9b6:	0e 94 f6 0a 	call	0x15ec	;  0x15ec
     9ba:	e1 fe       	sbrs	r14, 1
     9bc:	12 c0       	rjmp	.+36     	;  0x9e2
     9be:	a8 01       	movw	r20, r16
     9c0:	48 19       	sub	r20, r8
     9c2:	59 09       	sbc	r21, r9
     9c4:	be 01       	movw	r22, r28
     9c6:	6c 19       	sub	r22, r12
     9c8:	7d 09       	sbc	r23, r13
     9ca:	c5 01       	movw	r24, r10
     9cc:	0e 94 f6 0a 	call	0x15ec	;  0x15ec
     9d0:	a8 01       	movw	r20, r16
     9d2:	4c 19       	sub	r20, r12
     9d4:	5d 09       	sbc	r21, r13
     9d6:	be 01       	movw	r22, r28
     9d8:	68 19       	sub	r22, r8
     9da:	79 09       	sbc	r23, r9
     9dc:	c5 01       	movw	r24, r10
     9de:	0e 94 f6 0a 	call	0x15ec	;  0x15ec
     9e2:	e3 fe       	sbrs	r14, 3
     9e4:	12 c0       	rjmp	.+36     	;  0xa0a
     9e6:	a8 01       	movw	r20, r16
     9e8:	48 0d       	add	r20, r8
     9ea:	59 1d       	adc	r21, r9
     9ec:	be 01       	movw	r22, r28
     9ee:	6c 0d       	add	r22, r12
     9f0:	7d 1d       	adc	r23, r13
     9f2:	c5 01       	movw	r24, r10
     9f4:	0e 94 f6 0a 	call	0x15ec	;  0x15ec
     9f8:	a8 01       	movw	r20, r16
     9fa:	4c 0d       	add	r20, r12
     9fc:	5d 1d       	adc	r21, r13
     9fe:	b4 01       	movw	r22, r8
     a00:	6c 0f       	add	r22, r28
     a02:	7d 1f       	adc	r23, r29
     a04:	c5 01       	movw	r24, r10
     a06:	0e 94 f6 0a 	call	0x15ec	;  0x15ec
     a0a:	e2 fe       	sbrs	r14, 2
     a0c:	12 c0       	rjmp	.+36     	;  0xa32
     a0e:	a8 01       	movw	r20, r16
     a10:	48 0d       	add	r20, r8
     a12:	59 1d       	adc	r21, r9
     a14:	be 01       	movw	r22, r28
     a16:	6c 19       	sub	r22, r12
     a18:	7d 09       	sbc	r23, r13
     a1a:	c5 01       	movw	r24, r10
     a1c:	0e 94 f6 0a 	call	0x15ec	;  0x15ec
     a20:	a8 01       	movw	r20, r16
     a22:	4c 0d       	add	r20, r12
     a24:	5d 1d       	adc	r21, r13
     a26:	be 01       	movw	r22, r28
     a28:	68 19       	sub	r22, r8
     a2a:	79 09       	sbc	r23, r9
     a2c:	c5 01       	movw	r24, r10
     a2e:	0e 94 f6 0a 	call	0x15ec	;  0x15ec
     a32:	df 91       	pop	r29
     a34:	cf 91       	pop	r28
     a36:	1f 91       	pop	r17
     a38:	0f 91       	pop	r16
     a3a:	ef 90       	pop	r14
     a3c:	df 90       	pop	r13
     a3e:	cf 90       	pop	r12
     a40:	bf 90       	pop	r11
     a42:	af 90       	pop	r10
     a44:	9f 90       	pop	r9
     a46:	8f 90       	pop	r8
     a48:	08 95       	ret
     a4a:	2f 92       	push	r2
     a4c:	3f 92       	push	r3
     a4e:	4f 92       	push	r4
     a50:	5f 92       	push	r5
     a52:	6f 92       	push	r6
     a54:	7f 92       	push	r7
     a56:	8f 92       	push	r8
     a58:	9f 92       	push	r9
     a5a:	af 92       	push	r10
     a5c:	bf 92       	push	r11
     a5e:	cf 92       	push	r12
     a60:	df 92       	push	r13
     a62:	ef 92       	push	r14
     a64:	ff 92       	push	r15
     a66:	0f 93       	push	r16
     a68:	1f 93       	push	r17
     a6a:	cf 93       	push	r28
     a6c:	df 93       	push	r29
     a6e:	00 d0       	rcall	.+0      	;  0xa70
     a70:	00 d0       	rcall	.+0      	;  0xa72
     a72:	cd b7       	in	r28, 0x3d	; 61
     a74:	de b7       	in	r29, 0x3e	; 62
     a76:	2c 01       	movw	r4, r24
     a78:	7a 83       	std	Y+2, r23	; 0x02
     a7a:	69 83       	std	Y+1, r22	; 0x01
     a7c:	1a 01       	movw	r2, r20
     a7e:	59 01       	movw	r10, r18
     a80:	f0 2e       	mov	r15, r16
     a82:	81 e0       	ldi	r24, 0x01	; 1
     a84:	90 e0       	ldi	r25, 0x00	; 0
     a86:	82 1b       	sub	r24, r18
     a88:	93 0b       	sbc	r25, r19
     a8a:	9c 83       	std	Y+4, r25	; 0x04
     a8c:	8b 83       	std	Y+3, r24	; 0x03
     a8e:	66 24       	eor	r6, r6
     a90:	77 24       	eor	r7, r7
     a92:	62 1a       	sub	r6, r18
     a94:	73 0a       	sbc	r7, r19
     a96:	66 0c       	add	r6, r6
     a98:	77 1c       	adc	r7, r7
     a9a:	e0 2e       	mov	r14, r16
     a9c:	8a 01       	movw	r16, r20
     a9e:	9b 01       	movw	r18, r22
     aa0:	a5 01       	movw	r20, r10
     aa2:	60 e0       	ldi	r22, 0x00	; 0
     aa4:	70 e0       	ldi	r23, 0x00	; 0
     aa6:	c2 01       	movw	r24, r4
     aa8:	0e 94 bb 04 	call	0x976	;  0x976
     aac:	c1 2c       	mov	r12, r1
     aae:	d1 2c       	mov	r13, r1
     ab0:	88 24       	eor	r8, r8
     ab2:	83 94       	inc	r8
     ab4:	91 2c       	mov	r9, r1
     ab6:	25 c0       	rjmp	.+74     	;  0xb02
     ab8:	8b 81       	ldd	r24, Y+3	; 0x03
     aba:	9c 81       	ldd	r25, Y+4	; 0x04
     abc:	99 23       	and	r25, r25
     abe:	64 f0       	brlt	.+24     	;  0xad8
     ac0:	91 e0       	ldi	r25, 0x01	; 1
     ac2:	a9 1a       	sub	r10, r25
     ac4:	b1 08       	sbc	r11, r1
     ac6:	82 e0       	ldi	r24, 0x02	; 2
     ac8:	68 0e       	add	r6, r24
     aca:	71 1c       	adc	r7, r1
     acc:	8b 81       	ldd	r24, Y+3	; 0x03
     ace:	9c 81       	ldd	r25, Y+4	; 0x04
     ad0:	86 0d       	add	r24, r6
     ad2:	97 1d       	adc	r25, r7
     ad4:	9c 83       	std	Y+4, r25	; 0x04
     ad6:	8b 83       	std	Y+3, r24	; 0x03
     ad8:	9f ef       	ldi	r25, 0xFF	; 255
     ada:	c9 1a       	sub	r12, r25
     adc:	d9 0a       	sbc	r13, r25
     ade:	82 e0       	ldi	r24, 0x02	; 2
     ae0:	88 0e       	add	r8, r24
     ae2:	91 1c       	adc	r9, r1
     ae4:	8b 81       	ldd	r24, Y+3	; 0x03
     ae6:	9c 81       	ldd	r25, Y+4	; 0x04
     ae8:	88 0d       	add	r24, r8
     aea:	99 1d       	adc	r25, r9
     aec:	9c 83       	std	Y+4, r25	; 0x04
     aee:	8b 83       	std	Y+3, r24	; 0x03
     af0:	ef 2c       	mov	r14, r15
     af2:	81 01       	movw	r16, r2
     af4:	29 81       	ldd	r18, Y+1	; 0x01
     af6:	3a 81       	ldd	r19, Y+2	; 0x02
     af8:	a5 01       	movw	r20, r10
     afa:	b6 01       	movw	r22, r12
     afc:	c2 01       	movw	r24, r4
     afe:	0e 94 bb 04 	call	0x976	;  0x976
     b02:	ca 14       	cp	r12, r10
     b04:	db 04       	cpc	r13, r11
     b06:	c0 f2       	brcs	.-80     	;  0xab8
     b08:	0f 90       	pop	r0
     b0a:	0f 90       	pop	r0
     b0c:	0f 90       	pop	r0
     b0e:	0f 90       	pop	r0
     b10:	df 91       	pop	r29
     b12:	cf 91       	pop	r28
     b14:	1f 91       	pop	r17
     b16:	0f 91       	pop	r16
     b18:	ff 90       	pop	r15
     b1a:	ef 90       	pop	r14
     b1c:	df 90       	pop	r13
     b1e:	cf 90       	pop	r12
     b20:	bf 90       	pop	r11
     b22:	af 90       	pop	r10
     b24:	9f 90       	pop	r9
     b26:	8f 90       	pop	r8
     b28:	7f 90       	pop	r7
     b2a:	6f 90       	pop	r6
     b2c:	5f 90       	pop	r5
     b2e:	4f 90       	pop	r4
     b30:	3f 90       	pop	r3
     b32:	2f 90       	pop	r2
     b34:	08 95       	ret
     b36:	9f 92       	push	r9
     b38:	af 92       	push	r10
     b3a:	bf 92       	push	r11
     b3c:	cf 92       	push	r12
     b3e:	df 92       	push	r13
     b40:	ef 92       	push	r14
     b42:	ff 92       	push	r15
     b44:	0f 93       	push	r16
     b46:	1f 93       	push	r17
     b48:	cf 93       	push	r28
     b4a:	df 93       	push	r29
     b4c:	5c 01       	movw	r10, r24
     b4e:	7b 01       	movw	r14, r22
     b50:	6a 01       	movw	r12, r20
     b52:	e9 01       	movw	r28, r18
     b54:	90 2e       	mov	r9, r16
     b56:	8a 01       	movw	r16, r20
     b58:	02 0f       	add	r16, r18
     b5a:	13 1f       	adc	r17, r19
     b5c:	26 0f       	add	r18, r22
     b5e:	37 1f       	adc	r19, r23
     b60:	0f 5f       	subi	r16, 0xFF	; 255
     b62:	1f 4f       	sbci	r17, 0xFF	; 255
     b64:	2f 5f       	subi	r18, 0xFF	; 255
     b66:	3f 4f       	sbci	r19, 0xFF	; 255
     b68:	4c 1b       	sub	r20, r28
     b6a:	5d 0b       	sbc	r21, r29
     b6c:	6c 1b       	sub	r22, r28
     b6e:	7d 0b       	sbc	r23, r29
     b70:	0e 94 2f 0b 	call	0x165e	;  0x165e
     b74:	88 23       	and	r24, r24
     b76:	39 f0       	breq	.+14     	;  0xb86
     b78:	09 2d       	mov	r16, r9
     b7a:	9e 01       	movw	r18, r28
     b7c:	a6 01       	movw	r20, r12
     b7e:	b7 01       	movw	r22, r14
     b80:	c5 01       	movw	r24, r10
     b82:	0e 94 25 05 	call	0xa4a	;  0xa4a
     b86:	df 91       	pop	r29
     b88:	cf 91       	pop	r28
     b8a:	1f 91       	pop	r17
     b8c:	0f 91       	pop	r16
     b8e:	ff 90       	pop	r15
     b90:	ef 90       	pop	r14
     b92:	df 90       	pop	r13
     b94:	cf 90       	pop	r12
     b96:	bf 90       	pop	r11
     b98:	af 90       	pop	r10
     b9a:	9f 90       	pop	r9
     b9c:	08 95       	ret
     b9e:	28 e0       	ldi	r18, 0x08	; 8
     ba0:	fc 01       	movw	r30, r24
     ba2:	20 83       	st	Z, r18
     ba4:	84 eb       	ldi	r24, 0xB4	; 180
     ba6:	91 e0       	ldi	r25, 0x01	; 1
     ba8:	08 95       	ret
     baa:	cf 92       	push	r12
     bac:	df 92       	push	r13
     bae:	ef 92       	push	r14
     bb0:	ff 92       	push	r15
     bb2:	0f 93       	push	r16
     bb4:	1f 93       	push	r17
     bb6:	cf 93       	push	r28
     bb8:	df 93       	push	r29
     bba:	1f 92       	push	r1
     bbc:	cd b7       	in	r28, 0x3d	; 61
     bbe:	de b7       	in	r29, 0x3e	; 62
     bc0:	7c 01       	movw	r14, r24
     bc2:	6b 01       	movw	r12, r22
     bc4:	89 01       	movw	r16, r18
     bc6:	9a 01       	movw	r18, r20
     bc8:	4f e1       	ldi	r20, 0x1F	; 31
     bca:	5e e0       	ldi	r21, 0x0E	; 14
     bcc:	67 e7       	ldi	r22, 0x77	; 119
     bce:	7f e0       	ldi	r23, 0x0F	; 15
     bd0:	0e 94 df 0f 	call	0x1fbe	;  0x1fbe
     bd4:	ce 01       	movw	r24, r28
     bd6:	01 96       	adiw	r24, 0x01	; 1
     bd8:	0e 94 cf 05 	call	0xb9e	;  0xb9e
     bdc:	86 01       	movw	r16, r12
     bde:	24 e5       	ldi	r18, 0x54	; 84
     be0:	3b e0       	ldi	r19, 0x0B	; 11
     be2:	49 81       	ldd	r20, Y+1	; 0x01
     be4:	bc 01       	movw	r22, r24
     be6:	c7 01       	movw	r24, r14
     be8:	0e 94 97 0c 	call	0x192e	;  0x192e
     bec:	0f 90       	pop	r0
     bee:	df 91       	pop	r29
     bf0:	cf 91       	pop	r28
     bf2:	1f 91       	pop	r17
     bf4:	0f 91       	pop	r16
     bf6:	ff 90       	pop	r15
     bf8:	ef 90       	pop	r14
     bfa:	df 90       	pop	r13
     bfc:	cf 90       	pop	r12
     bfe:	08 95       	ret
     c00:	86 0f       	add	r24, r22
     c02:	91 1d       	adc	r25, r1
     c04:	fc 01       	movw	r30, r24
     c06:	84 91       	lpm	r24, Z
     c08:	08 95       	ret
     c0a:	fc 01       	movw	r30, r24
     c0c:	e6 0f       	add	r30, r22
     c0e:	f1 1d       	adc	r31, r1
     c10:	84 91       	lpm	r24, Z
     c12:	90 e0       	ldi	r25, 0x00	; 0
     c14:	31 96       	adiw	r30, 0x01	; 1
     c16:	98 2f       	mov	r25, r24
     c18:	88 27       	eor	r24, r24
     c1a:	e4 91       	lpm	r30, Z
     c1c:	8e 0f       	add	r24, r30
     c1e:	91 1d       	adc	r25, r1
     c20:	08 95       	ret
     c22:	80 e0       	ldi	r24, 0x00	; 0
     c24:	90 e0       	ldi	r25, 0x00	; 0
     c26:	08 95       	ret
     c28:	0f 93       	push	r16
     c2a:	1f 93       	push	r17
     c2c:	cf 93       	push	r28
     c2e:	df 93       	push	r29
     c30:	ec 01       	movw	r28, r24
     c32:	8b 01       	movw	r16, r22
     c34:	60 e0       	ldi	r22, 0x00	; 0
     c36:	c8 01       	movw	r24, r16
     c38:	0e 94 00 06 	call	0xc00	;  0xc00
     c3c:	88 83       	st	Y, r24
     c3e:	61 e0       	ldi	r22, 0x01	; 1
     c40:	c8 01       	movw	r24, r16
     c42:	0e 94 00 06 	call	0xc00	;  0xc00
     c46:	89 83       	std	Y+1, r24	; 0x01
     c48:	62 e0       	ldi	r22, 0x02	; 2
     c4a:	c8 01       	movw	r24, r16
     c4c:	0e 94 00 06 	call	0xc00	;  0xc00
     c50:	8a 83       	std	Y+2, r24	; 0x02
     c52:	63 e0       	ldi	r22, 0x03	; 3
     c54:	c8 01       	movw	r24, r16
     c56:	0e 94 00 06 	call	0xc00	;  0xc00
     c5a:	8b 83       	std	Y+3, r24	; 0x03
     c5c:	64 e0       	ldi	r22, 0x04	; 4
     c5e:	c8 01       	movw	r24, r16
     c60:	0e 94 00 06 	call	0xc00	;  0xc00
     c64:	8c 83       	std	Y+4, r24	; 0x04
     c66:	65 e0       	ldi	r22, 0x05	; 5
     c68:	c8 01       	movw	r24, r16
     c6a:	0e 94 00 06 	call	0xc00	;  0xc00
     c6e:	8d 83       	std	Y+5, r24	; 0x05
     c70:	66 e0       	ldi	r22, 0x06	; 6
     c72:	c8 01       	movw	r24, r16
     c74:	0e 94 00 06 	call	0xc00	;  0xc00
     c78:	8e 83       	std	Y+6, r24	; 0x06
     c7a:	67 e0       	ldi	r22, 0x07	; 7
     c7c:	c8 01       	movw	r24, r16
     c7e:	0e 94 00 06 	call	0xc00	;  0xc00
     c82:	8f 83       	std	Y+7, r24	; 0x07
     c84:	68 e0       	ldi	r22, 0x08	; 8
     c86:	c8 01       	movw	r24, r16
     c88:	0e 94 00 06 	call	0xc00	;  0xc00
     c8c:	88 87       	std	Y+8, r24	; 0x08
     c8e:	69 e0       	ldi	r22, 0x09	; 9
     c90:	c8 01       	movw	r24, r16
     c92:	0e 94 00 06 	call	0xc00	;  0xc00
     c96:	89 87       	std	Y+9, r24	; 0x09
     c98:	6a e0       	ldi	r22, 0x0A	; 10
     c9a:	c8 01       	movw	r24, r16
     c9c:	0e 94 00 06 	call	0xc00	;  0xc00
     ca0:	8a 87       	std	Y+10, r24	; 0x0a
     ca2:	6b e0       	ldi	r22, 0x0B	; 11
     ca4:	c8 01       	movw	r24, r16
     ca6:	0e 94 00 06 	call	0xc00	;  0xc00
     caa:	8b 87       	std	Y+11, r24	; 0x0b
     cac:	6c e0       	ldi	r22, 0x0C	; 12
     cae:	c8 01       	movw	r24, r16
     cb0:	0e 94 00 06 	call	0xc00	;  0xc00
     cb4:	8c 87       	std	Y+12, r24	; 0x0c
     cb6:	6d e0       	ldi	r22, 0x0D	; 13
     cb8:	c8 01       	movw	r24, r16
     cba:	0e 94 00 06 	call	0xc00	;  0xc00
     cbe:	8d 87       	std	Y+13, r24	; 0x0d
     cc0:	6e e0       	ldi	r22, 0x0E	; 14
     cc2:	c8 01       	movw	r24, r16
     cc4:	0e 94 00 06 	call	0xc00	;  0xc00
     cc8:	8e 87       	std	Y+14, r24	; 0x0e
     cca:	6f e0       	ldi	r22, 0x0F	; 15
     ccc:	c8 01       	movw	r24, r16
     cce:	0e 94 00 06 	call	0xc00	;  0xc00
     cd2:	8f 87       	std	Y+15, r24	; 0x0f
     cd4:	60 e1       	ldi	r22, 0x10	; 16
     cd6:	c8 01       	movw	r24, r16
     cd8:	0e 94 00 06 	call	0xc00	;  0xc00
     cdc:	88 8b       	std	Y+16, r24	; 0x10
     cde:	61 e1       	ldi	r22, 0x11	; 17
     ce0:	c8 01       	movw	r24, r16
     ce2:	0e 94 05 06 	call	0xc0a	;  0xc0a
     ce6:	9a 8b       	std	Y+18, r25	; 0x12
     ce8:	89 8b       	std	Y+17, r24	; 0x11
     cea:	63 e1       	ldi	r22, 0x13	; 19
     cec:	c8 01       	movw	r24, r16
     cee:	0e 94 05 06 	call	0xc0a	;  0xc0a
     cf2:	9c 8b       	std	Y+20, r25	; 0x14
     cf4:	8b 8b       	std	Y+19, r24	; 0x13
     cf6:	65 e1       	ldi	r22, 0x15	; 21
     cf8:	c8 01       	movw	r24, r16
     cfa:	0e 94 05 06 	call	0xc0a	;  0xc0a
     cfe:	9e 8b       	std	Y+22, r25	; 0x16
     d00:	8d 8b       	std	Y+21, r24	; 0x15
     d02:	df 91       	pop	r29
     d04:	cf 91       	pop	r28
     d06:	1f 91       	pop	r17
     d08:	0f 91       	pop	r16
     d0a:	08 95       	ret
     d0c:	dc 01       	movw	r26, r24
     d0e:	1a 96       	adiw	r26, 0x0a	; 10
     d10:	4c 91       	ld	r20, X
     d12:	1a 97       	sbiw	r26, 0x0a	; 10
     d14:	ed 91       	ld	r30, X+
     d16:	fc 91       	ld	r31, X
     d18:	11 97       	sbiw	r26, 0x01	; 1
     d1a:	24 91       	lpm	r18, Z
     d1c:	30 e0       	ldi	r19, 0x00	; 0
     d1e:	04 2e       	mov	r0, r20
     d20:	02 c0       	rjmp	.+4      	;  0xd26
     d22:	35 95       	asr	r19
     d24:	27 95       	ror	r18
     d26:	0a 94       	dec	r0
     d28:	e2 f7       	brpl	.-8      	;  0xd22
     d2a:	82 2f       	mov	r24, r18
     d2c:	94 2f       	mov	r25, r20
     d2e:	96 0f       	add	r25, r22
     d30:	98 30       	cpi	r25, 0x08	; 8
     d32:	80 f0       	brcs	.+32     	;  0xd54
     d34:	88 e0       	ldi	r24, 0x08	; 8
     d36:	84 1b       	sub	r24, r20
     d38:	31 96       	adiw	r30, 0x01	; 1
     d3a:	11 96       	adiw	r26, 0x01	; 1
     d3c:	fc 93       	st	X, r31
     d3e:	ee 93       	st	-X, r30
     d40:	e4 91       	lpm	r30, Z
     d42:	f0 e0       	ldi	r31, 0x00	; 0
     d44:	02 c0       	rjmp	.+4      	;  0xd4a
     d46:	ee 0f       	add	r30, r30
     d48:	ff 1f       	adc	r31, r31
     d4a:	8a 95       	dec	r24
     d4c:	e2 f7       	brpl	.-8      	;  0xd46
     d4e:	8e 2f       	mov	r24, r30
     d50:	82 2b       	or	r24, r18
     d52:	98 50       	subi	r25, 0x08	; 8
     d54:	21 e0       	ldi	r18, 0x01	; 1
     d56:	30 e0       	ldi	r19, 0x00	; 0
     d58:	02 c0       	rjmp	.+4      	;  0xd5e
     d5a:	22 0f       	add	r18, r18
     d5c:	33 1f       	adc	r19, r19
     d5e:	6a 95       	dec	r22
     d60:	e2 f7       	brpl	.-8      	;  0xd5a
     d62:	21 50       	subi	r18, 0x01	; 1
     d64:	1a 96       	adiw	r26, 0x0a	; 10
     d66:	9c 93       	st	X, r25
     d68:	82 23       	and	r24, r18
     d6a:	08 95       	ret
     d6c:	0f 93       	push	r16
     d6e:	1f 93       	push	r17
     d70:	cf 93       	push	r28
     d72:	df 93       	push	r29
     d74:	ec 01       	movw	r28, r24
     d76:	8c 01       	movw	r16, r24
     d78:	08 5b       	subi	r16, 0xB8	; 184
     d7a:	1f 4f       	sbci	r17, 0xFF	; 255
     d7c:	f8 01       	movw	r30, r16
     d7e:	71 83       	std	Z+1, r23	; 0x01
     d80:	60 83       	st	Z, r22
     d82:	12 86       	std	Z+10, r1	; 0x0a
     d84:	73 96       	adiw	r30, 0x13	; 19
     d86:	60 81       	ld	r22, Z
     d88:	c8 01       	movw	r24, r16
     d8a:	0e 94 86 06 	call	0xd0c	;  0xd0c
     d8e:	f8 01       	movw	r30, r16
     d90:	80 87       	std	Z+8, r24	; 0x08
     d92:	74 96       	adiw	r30, 0x14	; 20
     d94:	60 81       	ld	r22, Z
     d96:	c8 01       	movw	r24, r16
     d98:	0e 94 86 06 	call	0xd0c	;  0xd0c
     d9c:	f8 01       	movw	r30, r16
     d9e:	81 87       	std	Z+9, r24	; 0x09
     da0:	bc 96       	adiw	r30, 0x2c	; 44
     da2:	80 81       	ld	r24, Z
     da4:	f8 01       	movw	r30, r16
     da6:	84 87       	std	Z+12, r24	; 0x0c
     da8:	91 e0       	ldi	r25, 0x01	; 1
     daa:	81 11       	cpse	r24, r1
     dac:	90 e0       	ldi	r25, 0x00	; 0
     dae:	c8 5b       	subi	r28, 0xB8	; 184
     db0:	df 4f       	sbci	r29, 0xFF	; 255
     db2:	9d 87       	std	Y+13, r25	; 0x0d
     db4:	df 91       	pop	r29
     db6:	cf 91       	pop	r28
     db8:	1f 91       	pop	r17
     dba:	0f 91       	pop	r16
     dbc:	08 95       	ret
     dbe:	cf 93       	push	r28
     dc0:	c6 2f       	mov	r28, r22
     dc2:	0e 94 86 06 	call	0xd0c	;  0xd0c
     dc6:	c1 50       	subi	r28, 0x01	; 1
     dc8:	21 e0       	ldi	r18, 0x01	; 1
     dca:	30 e0       	ldi	r19, 0x00	; 0
     dcc:	02 c0       	rjmp	.+4      	;  0xdd2
     dce:	22 0f       	add	r18, r18
     dd0:	33 1f       	adc	r19, r19
     dd2:	ca 95       	dec	r28
     dd4:	e2 f7       	brpl	.-8      	;  0xdce
     dd6:	82 1b       	sub	r24, r18
     dd8:	cf 91       	pop	r28
     dda:	08 95       	ret
     ddc:	21 30       	cpi	r18, 0x01	; 1
     dde:	49 f0       	breq	.+18     	;  0xdf2
     de0:	18 f0       	brcs	.+6      	;  0xde8
     de2:	22 30       	cpi	r18, 0x02	; 2
     de4:	59 f0       	breq	.+22     	;  0xdfc
     de6:	0f c0       	rjmp	.+30     	;  0xe06
     de8:	84 0f       	add	r24, r20
     dea:	91 1d       	adc	r25, r1
     dec:	47 fd       	sbrc	r20, 7
     dee:	9a 95       	dec	r25
     df0:	08 95       	ret
     df2:	86 0f       	add	r24, r22
     df4:	91 1d       	adc	r25, r1
     df6:	67 fd       	sbrc	r22, 7
     df8:	9a 95       	dec	r25
     dfa:	08 95       	ret
     dfc:	84 1b       	sub	r24, r20
     dfe:	91 09       	sbc	r25, r1
     e00:	47 fd       	sbrc	r20, 7
     e02:	93 95       	inc	r25
     e04:	08 95       	ret
     e06:	86 1b       	sub	r24, r22
     e08:	91 09       	sbc	r25, r1
     e0a:	67 fd       	sbrc	r22, 7
     e0c:	93 95       	inc	r25
     e0e:	08 95       	ret
     e10:	21 30       	cpi	r18, 0x01	; 1
     e12:	49 f0       	breq	.+18     	;  0xe26
     e14:	18 f0       	brcs	.+6      	;  0xe1c
     e16:	22 30       	cpi	r18, 0x02	; 2
     e18:	59 f0       	breq	.+22     	;  0xe30
     e1a:	0f c0       	rjmp	.+30     	;  0xe3a
     e1c:	86 0f       	add	r24, r22
     e1e:	91 1d       	adc	r25, r1
     e20:	67 fd       	sbrc	r22, 7
     e22:	9a 95       	dec	r25
     e24:	08 95       	ret
     e26:	84 1b       	sub	r24, r20
     e28:	91 09       	sbc	r25, r1
     e2a:	47 fd       	sbrc	r20, 7
     e2c:	93 95       	inc	r25
     e2e:	08 95       	ret
     e30:	86 1b       	sub	r24, r22
     e32:	91 09       	sbc	r25, r1
     e34:	67 fd       	sbrc	r22, 7
     e36:	93 95       	inc	r25
     e38:	08 95       	ret
     e3a:	84 0f       	add	r24, r20
     e3c:	91 1d       	adc	r25, r1
     e3e:	47 fd       	sbrc	r20, 7
     e40:	9a 95       	dec	r25
     e42:	08 95       	ret
     e44:	6f 92       	push	r6
     e46:	7f 92       	push	r7
     e48:	8f 92       	push	r8
     e4a:	9f 92       	push	r9
     e4c:	af 92       	push	r10
     e4e:	bf 92       	push	r11
     e50:	cf 92       	push	r12
     e52:	df 92       	push	r13
     e54:	ef 92       	push	r14
     e56:	ff 92       	push	r15
     e58:	0f 93       	push	r16
     e5a:	1f 93       	push	r17
     e5c:	cf 93       	push	r28
     e5e:	df 93       	push	r29
     e60:	7c 01       	movw	r14, r24
     e62:	16 2f       	mov	r17, r22
     e64:	74 2e       	mov	r7, r20
     e66:	fc 01       	movw	r30, r24
     e68:	e8 5b       	subi	r30, 0xB8	; 184
     e6a:	ff 4f       	sbci	r31, 0xFF	; 255
     e6c:	96 80       	ldd	r9, Z+6	; 0x06
     e6e:	d7 81       	ldd	r29, Z+7	; 0x07
     e70:	f7 01       	movw	r30, r14
     e72:	e8 5b       	subi	r30, 0xB8	; 184
     e74:	ff 4f       	sbci	r31, 0xFF	; 255
     e76:	c0 85       	ldd	r28, Z+8	; 0x08
     e78:	c9 19       	sub	r28, r9
     e7a:	1c 17       	cp	r17, r28
     e7c:	10 f0       	brcs	.+4      	;  0xe82
     e7e:	6c 2e       	mov	r6, r28
     e80:	01 c0       	rjmp	.+2      	;  0xe84
     e82:	61 2e       	mov	r6, r17
     e84:	f7 01       	movw	r30, r14
     e86:	e8 5b       	subi	r30, 0xB8	; 184
     e88:	ff 4f       	sbci	r31, 0xFF	; 255
     e8a:	c4 80       	ldd	r12, Z+4	; 0x04
     e8c:	d5 80       	ldd	r13, Z+5	; 0x05
     e8e:	06 85       	ldd	r16, Z+14	; 0x0e
     e90:	8d 2e       	mov	r8, r29
     e92:	20 2f       	mov	r18, r16
     e94:	4d 2f       	mov	r20, r29
     e96:	69 2d       	mov	r22, r9
     e98:	82 81       	ldd	r24, Z+2	; 0x02
     e9a:	93 81       	ldd	r25, Z+3	; 0x03
     e9c:	0e 94 08 07 	call	0xe10	;  0xe10
     ea0:	5c 01       	movw	r10, r24
     ea2:	20 2f       	mov	r18, r16
     ea4:	4d 2f       	mov	r20, r29
     ea6:	69 2d       	mov	r22, r9
     ea8:	c6 01       	movw	r24, r12
     eaa:	0e 94 ee 06 	call	0xddc	;  0xddc
     eae:	77 20       	and	r7, r7
     eb0:	71 f0       	breq	.+28     	;  0xece
     eb2:	f7 01       	movw	r30, r14
     eb4:	e8 5b       	subi	r30, 0xB8	; 184
     eb6:	ff 4f       	sbci	r31, 0xFF	; 255
     eb8:	24 85       	ldd	r18, Z+12	; 0x0c
     eba:	bc 96       	adiw	r30, 0x2c	; 44
     ebc:	20 83       	st	Z, r18
     ebe:	26 2d       	mov	r18, r6
     ec0:	30 e0       	ldi	r19, 0x00	; 0
     ec2:	ac 01       	movw	r20, r24
     ec4:	b5 01       	movw	r22, r10
     ec6:	c7 01       	movw	r24, r14
     ec8:	0e 94 51 0a 	call	0x14a2	;  0x14a2
     ecc:	10 c0       	rjmp	.+32     	;  0xeee
     ece:	f7 01       	movw	r30, r14
     ed0:	e8 5b       	subi	r30, 0xB8	; 184
     ed2:	ff 4f       	sbci	r31, 0xFF	; 255
     ed4:	23 85       	ldd	r18, Z+11	; 0x0b
     ed6:	21 11       	cpse	r18, r1
     ed8:	0a c0       	rjmp	.+20     	;  0xeee
     eda:	25 85       	ldd	r18, Z+13	; 0x0d
     edc:	bc 96       	adiw	r30, 0x2c	; 44
     ede:	20 83       	st	Z, r18
     ee0:	26 2d       	mov	r18, r6
     ee2:	30 e0       	ldi	r19, 0x00	; 0
     ee4:	ac 01       	movw	r20, r24
     ee6:	b5 01       	movw	r22, r10
     ee8:	c7 01       	movw	r24, r14
     eea:	0e 94 51 0a 	call	0x14a2	;  0x14a2
     eee:	1c 17       	cp	r17, r28
     ef0:	20 f0       	brcs	.+8      	;  0xefa
     ef2:	1c 1b       	sub	r17, r28
     ef4:	df 5f       	subi	r29, 0xFF	; 255
     ef6:	91 2c       	mov	r9, r1
     ef8:	bb cf       	rjmp	.-138    	;  0xe70
     efa:	61 2f       	mov	r22, r17
     efc:	69 0d       	add	r22, r9
     efe:	f7 01       	movw	r30, r14
     f00:	e8 5b       	subi	r30, 0xB8	; 184
     f02:	ff 4f       	sbci	r31, 0xFF	; 255
     f04:	66 83       	std	Z+6, r22	; 0x06
     f06:	87 82       	std	Z+7, r8	; 0x07
     f08:	df 91       	pop	r29
     f0a:	cf 91       	pop	r28
     f0c:	1f 91       	pop	r17
     f0e:	0f 91       	pop	r16
     f10:	ff 90       	pop	r15
     f12:	ef 90       	pop	r14
     f14:	df 90       	pop	r13
     f16:	cf 90       	pop	r12
     f18:	bf 90       	pop	r11
     f1a:	af 90       	pop	r10
     f1c:	9f 90       	pop	r9
     f1e:	8f 90       	pop	r8
     f20:	7f 90       	pop	r7
     f22:	6f 90       	pop	r6
     f24:	08 95       	ret
     f26:	6f 92       	push	r6
     f28:	7f 92       	push	r7
     f2a:	8f 92       	push	r8
     f2c:	9f 92       	push	r9
     f2e:	af 92       	push	r10
     f30:	bf 92       	push	r11
     f32:	cf 92       	push	r12
     f34:	df 92       	push	r13
     f36:	ef 92       	push	r14
     f38:	ff 92       	push	r15
     f3a:	0f 93       	push	r16
     f3c:	1f 93       	push	r17
     f3e:	cf 93       	push	r28
     f40:	df 93       	push	r29
     f42:	ec 01       	movw	r28, r24
     f44:	7c 01       	movw	r14, r24
     f46:	88 e4       	ldi	r24, 0x48	; 72
     f48:	e8 0e       	add	r14, r24
     f4a:	f1 1c       	adc	r15, r1
     f4c:	ce 01       	movw	r24, r28
     f4e:	0e 94 b6 06 	call	0xd6c	;  0xd6c
     f52:	fe 01       	movw	r30, r28
     f54:	ef 5a       	subi	r30, 0xAF	; 175
     f56:	ff 4f       	sbci	r31, 0xFF	; 255
     f58:	c0 80       	ld	r12, Z
     f5a:	3c 96       	adiw	r30, 0x0c	; 12
     f5c:	60 81       	ld	r22, Z
     f5e:	c7 01       	movw	r24, r14
     f60:	0e 94 df 06 	call	0xdbe	;  0xdbe
     f64:	78 2e       	mov	r7, r24
     f66:	fe 01       	movw	r30, r28
     f68:	e2 5a       	subi	r30, 0xA2	; 162
     f6a:	ff 4f       	sbci	r31, 0xFF	; 255
     f6c:	60 81       	ld	r22, Z
     f6e:	c7 01       	movw	r24, r14
     f70:	0e 94 df 06 	call	0xdbe	;  0xdbe
     f74:	18 2f       	mov	r17, r24
     f76:	fe 01       	movw	r30, r28
     f78:	e1 5a       	subi	r30, 0xA1	; 161
     f7a:	ff 4f       	sbci	r31, 0xFF	; 255
     f7c:	60 81       	ld	r22, Z
     f7e:	c7 01       	movw	r24, r14
     f80:	0e 94 df 06 	call	0xdbe	;  0xdbe
     f84:	d8 2e       	mov	r13, r24
     f86:	f7 01       	movw	r30, r14
     f88:	60 84       	ldd	r6, Z+8	; 0x08
     f8a:	16 14       	cp	r1, r6
     f8c:	0c f0       	brlt	.+2      	;  0xf90
     f8e:	9b c0       	rjmp	.+310    	;  0x10c6
     f90:	06 85       	ldd	r16, Z+14	; 0x0e
     f92:	1c 0d       	add	r17, r12
     f94:	11 95       	neg	r17
     f96:	20 2f       	mov	r18, r16
     f98:	41 2f       	mov	r20, r17
     f9a:	67 2d       	mov	r22, r7
     f9c:	82 81       	ldd	r24, Z+2	; 0x02
     f9e:	93 81       	ldd	r25, Z+3	; 0x03
     fa0:	0e 94 08 07 	call	0xe10	;  0xe10
     fa4:	5c 01       	movw	r10, r24
     fa6:	f7 01       	movw	r30, r14
     fa8:	93 83       	std	Z+3, r25	; 0x03
     faa:	82 83       	std	Z+2, r24	; 0x02
     fac:	20 2f       	mov	r18, r16
     fae:	41 2f       	mov	r20, r17
     fb0:	67 2d       	mov	r22, r7
     fb2:	84 81       	ldd	r24, Z+4	; 0x04
     fb4:	95 81       	ldd	r25, Z+5	; 0x05
     fb6:	0e 94 ee 06 	call	0xddc	;  0xddc
     fba:	f7 01       	movw	r30, r14
     fbc:	95 83       	std	Z+5, r25	; 0x05
     fbe:	84 83       	std	Z+4, r24	; 0x04
     fc0:	01 30       	cpi	r16, 0x01	; 1
     fc2:	89 f0       	breq	.+34     	;  0xfe6
     fc4:	28 f0       	brcs	.+10     	;  0xfd0
     fc6:	02 30       	cpi	r16, 0x02	; 2
     fc8:	01 f1       	breq	.+64     	;  0x100a
     fca:	03 30       	cpi	r16, 0x03	; 3
     fcc:	a1 f1       	breq	.+104    	;  0x1036
     fce:	43 c0       	rjmp	.+134    	;  0x1056
     fd0:	95 01       	movw	r18, r10
     fd2:	26 0d       	add	r18, r6
     fd4:	31 1d       	adc	r19, r1
     fd6:	67 fc       	sbrc	r6, 7
     fd8:	3a 95       	dec	r19
     fda:	8c 01       	movw	r16, r24
     fdc:	0c 0d       	add	r16, r12
     fde:	11 1d       	adc	r17, r1
     fe0:	c7 fc       	sbrc	r12, 7
     fe2:	1a 95       	dec	r17
     fe4:	3a c0       	rjmp	.+116    	;  0x105a
     fe6:	a5 01       	movw	r20, r10
     fe8:	4c 19       	sub	r20, r12
     fea:	51 09       	sbc	r21, r1
     fec:	c7 fc       	sbrc	r12, 7
     fee:	53 95       	inc	r21
     ff0:	95 01       	movw	r18, r10
     ff2:	2f 5f       	subi	r18, 0xFF	; 255
     ff4:	3f 4f       	sbci	r19, 0xFF	; 255
     ff6:	8c 01       	movw	r16, r24
     ff8:	06 0d       	add	r16, r6
     ffa:	11 1d       	adc	r17, r1
     ffc:	67 fc       	sbrc	r6, 7
     ffe:	1a 95       	dec	r17
    1000:	ba 01       	movw	r22, r20
    1002:	6f 5f       	subi	r22, 0xFF	; 255
    1004:	7f 4f       	sbci	r23, 0xFF	; 255
    1006:	5b 01       	movw	r10, r22
    1008:	28 c0       	rjmp	.+80     	;  0x105a
    100a:	a5 01       	movw	r20, r10
    100c:	46 19       	sub	r20, r6
    100e:	51 09       	sbc	r21, r1
    1010:	67 fc       	sbrc	r6, 7
    1012:	53 95       	inc	r21
    1014:	95 01       	movw	r18, r10
    1016:	2f 5f       	subi	r18, 0xFF	; 255
    1018:	3f 4f       	sbci	r19, 0xFF	; 255
    101a:	bc 01       	movw	r22, r24
    101c:	6c 19       	sub	r22, r12
    101e:	71 09       	sbc	r23, r1
    1020:	c7 fc       	sbrc	r12, 7
    1022:	73 95       	inc	r23
    1024:	8c 01       	movw	r16, r24
    1026:	0f 5f       	subi	r16, 0xFF	; 255
    1028:	1f 4f       	sbci	r17, 0xFF	; 255
    102a:	cb 01       	movw	r24, r22
    102c:	01 96       	adiw	r24, 0x01	; 1
    102e:	fa 01       	movw	r30, r20
    1030:	31 96       	adiw	r30, 0x01	; 1
    1032:	5f 01       	movw	r10, r30
    1034:	12 c0       	rjmp	.+36     	;  0x105a
    1036:	95 01       	movw	r18, r10
    1038:	2c 0d       	add	r18, r12
    103a:	31 1d       	adc	r19, r1
    103c:	c7 fc       	sbrc	r12, 7
    103e:	3a 95       	dec	r19
    1040:	ac 01       	movw	r20, r24
    1042:	46 19       	sub	r20, r6
    1044:	51 09       	sbc	r21, r1
    1046:	67 fc       	sbrc	r6, 7
    1048:	53 95       	inc	r21
    104a:	8c 01       	movw	r16, r24
    104c:	0f 5f       	subi	r16, 0xFF	; 255
    104e:	1f 4f       	sbci	r17, 0xFF	; 255
    1050:	ca 01       	movw	r24, r20
    1052:	01 96       	adiw	r24, 0x01	; 1
    1054:	02 c0       	rjmp	.+4      	;  0x105a
    1056:	8c 01       	movw	r16, r24
    1058:	95 01       	movw	r18, r10
    105a:	ac 01       	movw	r20, r24
    105c:	b5 01       	movw	r22, r10
    105e:	ce 01       	movw	r24, r28
    1060:	0e 94 2f 0b 	call	0x165e	;  0x165e
    1064:	88 23       	and	r24, r24
    1066:	79 f1       	breq	.+94     	;  0x10c6
    1068:	fe 01       	movw	r30, r28
    106a:	e8 5b       	subi	r30, 0xB8	; 184
    106c:	ff 4f       	sbci	r31, 0xFF	; 255
    106e:	16 82       	std	Z+6, r1	; 0x06
    1070:	17 82       	std	Z+7, r1	; 0x07
    1072:	fe 01       	movw	r30, r28
    1074:	e7 5a       	subi	r30, 0xA7	; 167
    1076:	ff 4f       	sbci	r31, 0xFF	; 255
    1078:	60 81       	ld	r22, Z
    107a:	c7 01       	movw	r24, r14
    107c:	0e 94 86 06 	call	0xd0c	;  0xd0c
    1080:	08 2f       	mov	r16, r24
    1082:	fe 01       	movw	r30, r28
    1084:	e6 5a       	subi	r30, 0xA6	; 166
    1086:	ff 4f       	sbci	r31, 0xFF	; 255
    1088:	60 81       	ld	r22, Z
    108a:	c7 01       	movw	r24, r14
    108c:	0e 94 86 06 	call	0xd0c	;  0xd0c
    1090:	18 2f       	mov	r17, r24
    1092:	40 e0       	ldi	r20, 0x00	; 0
    1094:	60 2f       	mov	r22, r16
    1096:	ce 01       	movw	r24, r28
    1098:	0e 94 22 07 	call	0xe44	;  0xe44
    109c:	41 e0       	ldi	r20, 0x01	; 1
    109e:	61 2f       	mov	r22, r17
    10a0:	ce 01       	movw	r24, r28
    10a2:	0e 94 22 07 	call	0xe44	;  0xe44
    10a6:	61 e0       	ldi	r22, 0x01	; 1
    10a8:	c7 01       	movw	r24, r14
    10aa:	0e 94 86 06 	call	0xd0c	;  0xd0c
    10ae:	81 11       	cpse	r24, r1
    10b0:	f0 cf       	rjmp	.-32     	;  0x1092
    10b2:	fe 01       	movw	r30, r28
    10b4:	e8 5b       	subi	r30, 0xB8	; 184
    10b6:	ff 4f       	sbci	r31, 0xFF	; 255
    10b8:	87 81       	ldd	r24, Z+7	; 0x07
    10ba:	8c 15       	cp	r24, r12
    10bc:	d4 f2       	brlt	.-76     	;  0x1072
    10be:	84 85       	ldd	r24, Z+12	; 0x0c
    10c0:	cc 58       	subi	r28, 0x8C	; 140
    10c2:	df 4f       	sbci	r29, 0xFF	; 255
    10c4:	88 83       	st	Y, r24
    10c6:	8d 2d       	mov	r24, r13
    10c8:	df 91       	pop	r29
    10ca:	cf 91       	pop	r28
    10cc:	1f 91       	pop	r17
    10ce:	0f 91       	pop	r16
    10d0:	ff 90       	pop	r15
    10d2:	ef 90       	pop	r14
    10d4:	df 90       	pop	r13
    10d6:	cf 90       	pop	r12
    10d8:	bf 90       	pop	r11
    10da:	af 90       	pop	r10
    10dc:	9f 90       	pop	r9
    10de:	8f 90       	pop	r8
    10e0:	7f 90       	pop	r7
    10e2:	6f 90       	pop	r6
    10e4:	08 95       	ret
    10e6:	ef 92       	push	r14
    10e8:	ff 92       	push	r15
    10ea:	0f 93       	push	r16
    10ec:	1f 93       	push	r17
    10ee:	cf 93       	push	r28
    10f0:	df 93       	push	r29
    10f2:	fc 01       	movw	r30, r24
    10f4:	ec 5b       	subi	r30, 0xBC	; 188
    10f6:	ff 4f       	sbci	r31, 0xFF	; 255
    10f8:	c0 81       	ld	r28, Z
    10fa:	d1 81       	ldd	r29, Z+1	; 0x01
    10fc:	67 96       	adiw	r28, 0x17	; 23
    10fe:	6f 3f       	cpi	r22, 0xFF	; 255
    1100:	71 05       	cpc	r23, r1
    1102:	09 f0       	breq	.+2      	;  0x1106
    1104:	38 f5       	brcc	.+78     	;  0x1154
    1106:	61 36       	cpi	r22, 0x61	; 97
    1108:	71 05       	cpc	r23, r1
    110a:	30 f0       	brcs	.+12     	;  0x1118
    110c:	b6 96       	adiw	r30, 0x26	; 38
    110e:	80 81       	ld	r24, Z
    1110:	91 81       	ldd	r25, Z+1	; 0x01
    1112:	c8 0f       	add	r28, r24
    1114:	d9 1f       	adc	r29, r25
    1116:	0a c0       	rjmp	.+20     	;  0x112c
    1118:	61 34       	cpi	r22, 0x41	; 65
    111a:	71 05       	cpc	r23, r1
    111c:	38 f0       	brcs	.+14     	;  0x112c
    111e:	fc 01       	movw	r30, r24
    1120:	e8 59       	subi	r30, 0x98	; 152
    1122:	ff 4f       	sbci	r31, 0xFF	; 255
    1124:	80 81       	ld	r24, Z
    1126:	91 81       	ldd	r25, Z+1	; 0x01
    1128:	c8 0f       	add	r28, r24
    112a:	d9 1f       	adc	r29, r25
    112c:	ce 01       	movw	r24, r28
    112e:	01 96       	adiw	r24, 0x01	; 1
    1130:	fc 01       	movw	r30, r24
    1132:	24 91       	lpm	r18, Z
    1134:	22 23       	and	r18, r18
    1136:	09 f4       	brne	.+2      	;  0x113a
    1138:	3c c0       	rjmp	.+120    	;  0x11b2
    113a:	fe 01       	movw	r30, r28
    113c:	24 91       	lpm	r18, Z
    113e:	30 e0       	ldi	r19, 0x00	; 0
    1140:	62 17       	cp	r22, r18
    1142:	73 07       	cpc	r23, r19
    1144:	11 f4       	brne	.+4      	;  0x114a
    1146:	01 96       	adiw	r24, 0x01	; 1
    1148:	39 c0       	rjmp	.+114    	;  0x11bc
    114a:	fc 01       	movw	r30, r24
    114c:	84 91       	lpm	r24, Z
    114e:	c8 0f       	add	r28, r24
    1150:	d1 1d       	adc	r29, r1
    1152:	ec cf       	rjmp	.-40     	;  0x112c
    1154:	8b 01       	movw	r16, r22
    1156:	fc 01       	movw	r30, r24
    1158:	e4 59       	subi	r30, 0x94	; 148
    115a:	ff 4f       	sbci	r31, 0xFF	; 255
    115c:	80 81       	ld	r24, Z
    115e:	91 81       	ldd	r25, Z+1	; 0x01
    1160:	c8 0f       	add	r28, r24
    1162:	d9 1f       	adc	r29, r25
    1164:	7e 01       	movw	r14, r28
    1166:	60 e0       	ldi	r22, 0x00	; 0
    1168:	c7 01       	movw	r24, r14
    116a:	0e 94 05 06 	call	0xc0a	;  0xc0a
    116e:	c8 0f       	add	r28, r24
    1170:	d9 1f       	adc	r29, r25
    1172:	62 e0       	ldi	r22, 0x02	; 2
    1174:	c7 01       	movw	r24, r14
    1176:	0e 94 05 06 	call	0xc0a	;  0xc0a
    117a:	f4 e0       	ldi	r31, 0x04	; 4
    117c:	ef 0e       	add	r14, r31
    117e:	f1 1c       	adc	r15, r1
    1180:	80 17       	cp	r24, r16
    1182:	91 07       	cpc	r25, r17
    1184:	80 f3       	brcs	.-32     	;  0x1166
    1186:	fe 01       	movw	r30, r28
    1188:	84 91       	lpm	r24, Z
    118a:	90 e0       	ldi	r25, 0x00	; 0
    118c:	98 2f       	mov	r25, r24
    118e:	88 27       	eor	r24, r24
    1190:	31 96       	adiw	r30, 0x01	; 1
    1192:	e4 91       	lpm	r30, Z
    1194:	8e 2b       	or	r24, r30
    1196:	00 97       	sbiw	r24, 0x00	; 0
    1198:	79 f0       	breq	.+30     	;  0x11b8
    119a:	08 17       	cp	r16, r24
    119c:	19 07       	cpc	r17, r25
    119e:	19 f4       	brne	.+6      	;  0x11a6
    11a0:	ce 01       	movw	r24, r28
    11a2:	03 96       	adiw	r24, 0x03	; 3
    11a4:	0b c0       	rjmp	.+22     	;  0x11bc
    11a6:	fe 01       	movw	r30, r28
    11a8:	32 96       	adiw	r30, 0x02	; 2
    11aa:	e4 91       	lpm	r30, Z
    11ac:	ce 0f       	add	r28, r30
    11ae:	d1 1d       	adc	r29, r1
    11b0:	ea cf       	rjmp	.-44     	;  0x1186
    11b2:	80 e0       	ldi	r24, 0x00	; 0
    11b4:	90 e0       	ldi	r25, 0x00	; 0
    11b6:	02 c0       	rjmp	.+4      	;  0x11bc
    11b8:	80 e0       	ldi	r24, 0x00	; 0
    11ba:	90 e0       	ldi	r25, 0x00	; 0
    11bc:	df 91       	pop	r29
    11be:	cf 91       	pop	r28
    11c0:	1f 91       	pop	r17
    11c2:	0f 91       	pop	r16
    11c4:	ff 90       	pop	r15
    11c6:	ef 90       	pop	r14
    11c8:	08 95       	ret
    11ca:	cf 93       	push	r28
    11cc:	df 93       	push	r29
    11ce:	ec 01       	movw	r28, r24
    11d0:	fc 01       	movw	r30, r24
    11d2:	e6 5b       	subi	r30, 0xB6	; 182
    11d4:	ff 4f       	sbci	r31, 0xFF	; 255
    11d6:	71 83       	std	Z+1, r23	; 0x01
    11d8:	60 83       	st	Z, r22
    11da:	32 96       	adiw	r30, 0x02	; 2
    11dc:	51 83       	std	Z+1, r21	; 0x01
    11de:	40 83       	st	Z, r20
    11e0:	b9 01       	movw	r22, r18
    11e2:	0e 94 73 08 	call	0x10e6	;  0x10e6
    11e6:	00 97       	sbiw	r24, 0x00	; 0
    11e8:	41 f0       	breq	.+16     	;  0x11fa
    11ea:	bc 01       	movw	r22, r24
    11ec:	ce 01       	movw	r24, r28
    11ee:	0e 94 93 07 	call	0xf26	;  0xf26
    11f2:	08 2e       	mov	r0, r24
    11f4:	00 0c       	add	r0, r0
    11f6:	99 0b       	sbc	r25, r25
    11f8:	02 c0       	rjmp	.+4      	;  0x11fe
    11fa:	80 e0       	ldi	r24, 0x00	; 0
    11fc:	90 e0       	ldi	r25, 0x00	; 0
    11fe:	df 91       	pop	r29
    1200:	cf 91       	pop	r28
    1202:	08 95       	ret
    1204:	cf 92       	push	r12
    1206:	df 92       	push	r13
    1208:	ef 92       	push	r14
    120a:	ff 92       	push	r15
    120c:	0f 93       	push	r16
    120e:	1f 93       	push	r17
    1210:	cf 93       	push	r28
    1212:	df 93       	push	r29
    1214:	ec 01       	movw	r28, r24
    1216:	8b 01       	movw	r16, r22
    1218:	7a 01       	movw	r14, r20
    121a:	69 01       	movw	r12, r18
    121c:	fc 01       	movw	r30, r24
    121e:	ea 5a       	subi	r30, 0xAA	; 170
    1220:	ff 4f       	sbci	r31, 0xFF	; 255
    1222:	80 81       	ld	r24, Z
    1224:	81 30       	cpi	r24, 0x01	; 1
    1226:	89 f0       	breq	.+34     	;  0x124a
    1228:	28 f0       	brcs	.+10     	;  0x1234
    122a:	82 30       	cpi	r24, 0x02	; 2
    122c:	c9 f0       	breq	.+50     	;  0x1260
    122e:	83 30       	cpi	r24, 0x03	; 3
    1230:	11 f1       	breq	.+68     	;  0x1276
    1232:	2b c0       	rjmp	.+86     	;  0x128a
    1234:	fe 01       	movw	r30, r28
    1236:	ea 5b       	subi	r30, 0xBA	; 186
    1238:	ff 4f       	sbci	r31, 0xFF	; 255
    123a:	01 90       	ld	r0, Z+
    123c:	f0 81       	ld	r31, Z
    123e:	e0 2d       	mov	r30, r0
    1240:	ce 01       	movw	r24, r28
    1242:	09 95       	icall
    1244:	e8 0e       	add	r14, r24
    1246:	f9 1e       	adc	r15, r25
    1248:	20 c0       	rjmp	.+64     	;  0x128a
    124a:	fe 01       	movw	r30, r28
    124c:	ea 5b       	subi	r30, 0xBA	; 186
    124e:	ff 4f       	sbci	r31, 0xFF	; 255
    1250:	01 90       	ld	r0, Z+
    1252:	f0 81       	ld	r31, Z
    1254:	e0 2d       	mov	r30, r0
    1256:	ce 01       	movw	r24, r28
    1258:	09 95       	icall
    125a:	08 1b       	sub	r16, r24
    125c:	19 0b       	sbc	r17, r25
    125e:	15 c0       	rjmp	.+42     	;  0x128a
    1260:	fe 01       	movw	r30, r28
    1262:	ea 5b       	subi	r30, 0xBA	; 186
    1264:	ff 4f       	sbci	r31, 0xFF	; 255
    1266:	01 90       	ld	r0, Z+
    1268:	f0 81       	ld	r31, Z
    126a:	e0 2d       	mov	r30, r0
    126c:	ce 01       	movw	r24, r28
    126e:	09 95       	icall
    1270:	e8 1a       	sub	r14, r24
    1272:	f9 0a       	sbc	r15, r25
    1274:	0a c0       	rjmp	.+20     	;  0x128a
    1276:	fe 01       	movw	r30, r28
    1278:	ea 5b       	subi	r30, 0xBA	; 186
    127a:	ff 4f       	sbci	r31, 0xFF	; 255
    127c:	01 90       	ld	r0, Z+
    127e:	f0 81       	ld	r31, Z
    1280:	e0 2d       	mov	r30, r0
    1282:	ce 01       	movw	r24, r28
    1284:	09 95       	icall
    1286:	08 0f       	add	r16, r24
    1288:	19 1f       	adc	r17, r25
    128a:	96 01       	movw	r18, r12
    128c:	a7 01       	movw	r20, r14
    128e:	b8 01       	movw	r22, r16
    1290:	ce 01       	movw	r24, r28
    1292:	0e 94 e5 08 	call	0x11ca	;  0x11ca
    1296:	df 91       	pop	r29
    1298:	cf 91       	pop	r28
    129a:	1f 91       	pop	r17
    129c:	0f 91       	pop	r16
    129e:	ff 90       	pop	r15
    12a0:	ef 90       	pop	r14
    12a2:	df 90       	pop	r13
    12a4:	cf 90       	pop	r12
    12a6:	08 95       	ret
    12a8:	af 92       	push	r10
    12aa:	bf 92       	push	r11
    12ac:	cf 92       	push	r12
    12ae:	df 92       	push	r13
    12b0:	ef 92       	push	r14
    12b2:	ff 92       	push	r15
    12b4:	0f 93       	push	r16
    12b6:	1f 93       	push	r17
    12b8:	cf 93       	push	r28
    12ba:	df 93       	push	r29
    12bc:	ec 01       	movw	r28, r24
    12be:	5b 01       	movw	r10, r22
    12c0:	6a 01       	movw	r12, r20
    12c2:	89 01       	movw	r16, r18
    12c4:	0e 94 d4 0c 	call	0x19a8	;  0x19a8
    12c8:	e1 2c       	mov	r14, r1
    12ca:	f1 2c       	mov	r15, r1
    12cc:	ea 81       	ldd	r30, Y+2	; 0x02
    12ce:	fb 81       	ldd	r31, Y+3	; 0x03
    12d0:	d8 01       	movw	r26, r16
    12d2:	6c 91       	ld	r22, X
    12d4:	ce 01       	movw	r24, r28
    12d6:	09 95       	icall
    12d8:	8f 3f       	cpi	r24, 0xFF	; 255
    12da:	bf ef       	ldi	r27, 0xFF	; 255
    12dc:	9b 07       	cpc	r25, r27
    12de:	39 f1       	breq	.+78     	;  0x132e
    12e0:	0f 5f       	subi	r16, 0xFF	; 255
    12e2:	1f 4f       	sbci	r17, 0xFF	; 255
    12e4:	8e 3f       	cpi	r24, 0xFE	; 254
    12e6:	2f ef       	ldi	r18, 0xFF	; 255
    12e8:	92 07       	cpc	r25, r18
    12ea:	81 f3       	breq	.-32     	;  0x12cc
    12ec:	9c 01       	movw	r18, r24
    12ee:	a6 01       	movw	r20, r12
    12f0:	b5 01       	movw	r22, r10
    12f2:	ce 01       	movw	r24, r28
    12f4:	0e 94 02 09 	call	0x1204	;  0x1204
    12f8:	9c 01       	movw	r18, r24
    12fa:	fe 01       	movw	r30, r28
    12fc:	ea 5a       	subi	r30, 0xAA	; 170
    12fe:	ff 4f       	sbci	r31, 0xFF	; 255
    1300:	90 81       	ld	r25, Z
    1302:	91 30       	cpi	r25, 0x01	; 1
    1304:	49 f0       	breq	.+18     	;  0x1318
    1306:	28 f0       	brcs	.+10     	;  0x1312
    1308:	92 30       	cpi	r25, 0x02	; 2
    130a:	49 f0       	breq	.+18     	;  0x131e
    130c:	93 30       	cpi	r25, 0x03	; 3
    130e:	51 f0       	breq	.+20     	;  0x1324
    1310:	0b c0       	rjmp	.+22     	;  0x1328
    1312:	a2 0e       	add	r10, r18
    1314:	b3 1e       	adc	r11, r19
    1316:	08 c0       	rjmp	.+16     	;  0x1328
    1318:	c2 0e       	add	r12, r18
    131a:	d3 1e       	adc	r13, r19
    131c:	05 c0       	rjmp	.+10     	;  0x1328
    131e:	a2 1a       	sub	r10, r18
    1320:	b3 0a       	sbc	r11, r19
    1322:	02 c0       	rjmp	.+4      	;  0x1328
    1324:	c2 1a       	sub	r12, r18
    1326:	d3 0a       	sbc	r13, r19
    1328:	e2 0e       	add	r14, r18
    132a:	f3 1e       	adc	r15, r19
    132c:	cf cf       	rjmp	.-98     	;  0x12cc
    132e:	c7 01       	movw	r24, r14
    1330:	df 91       	pop	r29
    1332:	cf 91       	pop	r28
    1334:	1f 91       	pop	r17
    1336:	0f 91       	pop	r16
    1338:	ff 90       	pop	r15
    133a:	ef 90       	pop	r14
    133c:	df 90       	pop	r13
    133e:	cf 90       	pop	r12
    1340:	bf 90       	pop	r11
    1342:	af 90       	pop	r10
    1344:	08 95       	ret
    1346:	e7 ec       	ldi	r30, 0xC7	; 199
    1348:	fc e0       	ldi	r31, 0x0C	; 12
    134a:	dc 01       	movw	r26, r24
    134c:	13 96       	adiw	r26, 0x03	; 3
    134e:	fc 93       	st	X, r31
    1350:	ee 93       	st	-X, r30
    1352:	12 97       	sbiw	r26, 0x02	; 2
    1354:	0e 94 54 09 	call	0x12a8	;  0x12a8
    1358:	08 95       	ret
    135a:	fc 01       	movw	r30, r24
    135c:	ec 5b       	subi	r30, 0xBC	; 188
    135e:	ff 4f       	sbci	r31, 0xFF	; 255
    1360:	20 81       	ld	r18, Z
    1362:	31 81       	ldd	r19, Z+1	; 0x01
    1364:	23 2b       	or	r18, r19
    1366:	e1 f1       	breq	.+120    	;  0x13e0
    1368:	b0 96       	adiw	r30, 0x20	; 32
    136a:	20 81       	ld	r18, Z
    136c:	3c 96       	adiw	r30, 0x0c	; 12
    136e:	20 83       	st	Z, r18
    1370:	3b 97       	sbiw	r30, 0x0b	; 11
    1372:	40 81       	ld	r20, Z
    1374:	3c 96       	adiw	r30, 0x0c	; 12
    1376:	40 83       	st	Z, r20
    1378:	32 97       	sbiw	r30, 0x02	; 2
    137a:	30 81       	ld	r19, Z
    137c:	33 23       	and	r19, r19
    137e:	81 f1       	breq	.+96     	;  0x13e0
    1380:	31 30       	cpi	r19, 0x01	; 1
    1382:	79 f4       	brne	.+30     	;  0x13a2
    1384:	39 97       	sbiw	r30, 0x09	; 9
    1386:	30 81       	ld	r19, Z
    1388:	23 17       	cp	r18, r19
    138a:	14 f4       	brge	.+4      	;  0x1390
    138c:	3a 96       	adiw	r30, 0x0a	; 10
    138e:	30 83       	st	Z, r19
    1390:	fc 01       	movw	r30, r24
    1392:	e9 59       	subi	r30, 0x99	; 153
    1394:	ff 4f       	sbci	r31, 0xFF	; 255
    1396:	20 81       	ld	r18, Z
    1398:	24 17       	cp	r18, r20
    139a:	14 f5       	brge	.+68     	;  0x13e0
    139c:	3a 96       	adiw	r30, 0x0a	; 10
    139e:	20 83       	st	Z, r18
    13a0:	08 95       	ret
    13a2:	02 2e       	mov	r0, r18
    13a4:	00 0c       	add	r0, r0
    13a6:	33 0b       	sbc	r19, r19
    13a8:	fc 01       	movw	r30, r24
    13aa:	ef 59       	subi	r30, 0x9F	; 159
    13ac:	ff 4f       	sbci	r31, 0xFF	; 255
    13ae:	e0 81       	ld	r30, Z
    13b0:	dc 01       	movw	r26, r24
    13b2:	ad 59       	subi	r26, 0x9D	; 157
    13b4:	bf 4f       	sbci	r27, 0xFF	; 255
    13b6:	5c 91       	ld	r21, X
    13b8:	65 2f       	mov	r22, r21
    13ba:	05 2e       	mov	r0, r21
    13bc:	00 0c       	add	r0, r0
    13be:	77 0b       	sbc	r23, r23
    13c0:	6e 0f       	add	r22, r30
    13c2:	71 1d       	adc	r23, r1
    13c4:	e7 fd       	sbrc	r30, 7
    13c6:	7a 95       	dec	r23
    13c8:	26 17       	cp	r18, r22
    13ca:	37 07       	cpc	r19, r23
    13cc:	1c f4       	brge	.+6      	;  0x13d4
    13ce:	1d 96       	adiw	r26, 0x0d	; 13
    13d0:	e5 0f       	add	r30, r21
    13d2:	ec 93       	st	X, r30
    13d4:	54 17       	cp	r21, r20
    13d6:	24 f4       	brge	.+8      	;  0x13e0
    13d8:	fc 01       	movw	r30, r24
    13da:	ef 58       	subi	r30, 0x8F	; 143
    13dc:	ff 4f       	sbci	r31, 0xFF	; 255
    13de:	50 83       	st	Z, r21
    13e0:	08 95       	ret
    13e2:	8a 5b       	subi	r24, 0xBA	; 186
    13e4:	9f 4f       	sbci	r25, 0xFF	; 255
    13e6:	21 e1       	ldi	r18, 0x11	; 17
    13e8:	36 e0       	ldi	r19, 0x06	; 6
    13ea:	fc 01       	movw	r30, r24
    13ec:	31 83       	std	Z+1, r19	; 0x01
    13ee:	20 83       	st	Z, r18
    13f0:	08 95       	ret
    13f2:	cf 93       	push	r28
    13f4:	df 93       	push	r29
    13f6:	fc 01       	movw	r30, r24
    13f8:	ec 5b       	subi	r30, 0xBC	; 188
    13fa:	ff 4f       	sbci	r31, 0xFF	; 255
    13fc:	20 81       	ld	r18, Z
    13fe:	31 81       	ldd	r19, Z+1	; 0x01
    1400:	26 17       	cp	r18, r22
    1402:	37 07       	cpc	r19, r23
    1404:	51 f0       	breq	.+20     	;  0x141a
    1406:	ec 01       	movw	r28, r24
    1408:	71 83       	std	Z+1, r23	; 0x01
    140a:	60 83       	st	Z, r22
    140c:	89 5a       	subi	r24, 0xA9	; 169
    140e:	9f 4f       	sbci	r25, 0xFF	; 255
    1410:	0e 94 14 06 	call	0xc28	;  0xc28
    1414:	ce 01       	movw	r24, r28
    1416:	0e 94 ad 09 	call	0x135a	;  0x135a
    141a:	df 91       	pop	r29
    141c:	cf 91       	pop	r28
    141e:	08 95       	ret
    1420:	cf 93       	push	r28
    1422:	df 93       	push	r29
    1424:	ec 01       	movw	r28, r24
    1426:	a8 81       	ld	r26, Y
    1428:	b9 81       	ldd	r27, Y+1	; 0x01
    142a:	eb 01       	movw	r28, r22
    142c:	e8 81       	ld	r30, Y
    142e:	f9 81       	ldd	r31, Y+1	; 0x01
    1430:	ea 0f       	add	r30, r26
    1432:	fb 1f       	adc	r31, r27
    1434:	ea 17       	cp	r30, r26
    1436:	fb 07       	cpc	r31, r27
    1438:	38 f4       	brcc	.+14     	;  0x1448
    143a:	a2 17       	cp	r26, r18
    143c:	b3 07       	cpc	r27, r19
    143e:	18 f4       	brcc	.+6      	;  0x1446
    1440:	f9 01       	movw	r30, r18
    1442:	31 97       	sbiw	r30, 0x01	; 1
    1444:	01 c0       	rjmp	.+2      	;  0x1448
    1446:	da 01       	movw	r26, r20
    1448:	a2 17       	cp	r26, r18
    144a:	b3 07       	cpc	r27, r19
    144c:	a8 f4       	brcc	.+42     	;  0x1478
    144e:	4e 17       	cp	r20, r30
    1450:	5f 07       	cpc	r21, r31
    1452:	a0 f4       	brcc	.+40     	;  0x147c
    1454:	a4 17       	cp	r26, r20
    1456:	b5 07       	cpc	r27, r21
    1458:	08 f0       	brcs	.+2      	;  0x145c
    145a:	ad 01       	movw	r20, r26
    145c:	2e 17       	cp	r18, r30
    145e:	3f 07       	cpc	r19, r31
    1460:	08 f0       	brcs	.+2      	;  0x1464
    1462:	9f 01       	movw	r18, r30
    1464:	fc 01       	movw	r30, r24
    1466:	51 83       	std	Z+1, r21	; 0x01
    1468:	40 83       	st	Z, r20
    146a:	24 1b       	sub	r18, r20
    146c:	35 0b       	sbc	r19, r21
    146e:	eb 01       	movw	r28, r22
    1470:	39 83       	std	Y+1, r19	; 0x01
    1472:	28 83       	st	Y, r18
    1474:	81 e0       	ldi	r24, 0x01	; 1
    1476:	03 c0       	rjmp	.+6      	;  0x147e
    1478:	80 e0       	ldi	r24, 0x00	; 0
    147a:	01 c0       	rjmp	.+2      	;  0x147e
    147c:	80 e0       	ldi	r24, 0x00	; 0
    147e:	df 91       	pop	r29
    1480:	cf 91       	pop	r28
    1482:	08 95       	ret
    1484:	0f 93       	push	r16
    1486:	dc 01       	movw	r26, r24
    1488:	9a 96       	adiw	r26, 0x2a	; 42
    148a:	ed 91       	ld	r30, X+
    148c:	fc 91       	ld	r31, X
    148e:	9b 97       	sbiw	r26, 0x2b	; 43
    1490:	4e 1b       	sub	r20, r30
    1492:	5f 0b       	sbc	r21, r31
    1494:	5e 96       	adiw	r26, 0x1e	; 30
    1496:	ed 91       	ld	r30, X+
    1498:	fc 91       	ld	r31, X
    149a:	5f 97       	sbiw	r26, 0x1f	; 31
    149c:	09 95       	icall
    149e:	0f 91       	pop	r16
    14a0:	08 95       	ret
    14a2:	ef 92       	push	r14
    14a4:	ff 92       	push	r15
    14a6:	0f 93       	push	r16
    14a8:	1f 93       	push	r17
    14aa:	cf 93       	push	r28
    14ac:	df 93       	push	r29
    14ae:	00 d0       	rcall	.+0      	;  0x14b0
    14b0:	00 d0       	rcall	.+0      	;  0x14b2
    14b2:	00 d0       	rcall	.+0      	;  0x14b4
    14b4:	cd b7       	in	r28, 0x3d	; 61
    14b6:	de b7       	in	r29, 0x3e	; 62
    14b8:	7a 83       	std	Y+2, r23	; 0x02
    14ba:	69 83       	std	Y+1, r22	; 0x01
    14bc:	5c 83       	std	Y+4, r21	; 0x04
    14be:	4b 83       	std	Y+3, r20	; 0x03
    14c0:	3e 83       	std	Y+6, r19	; 0x06
    14c2:	2d 83       	std	Y+5, r18	; 0x05
    14c4:	fc 01       	movw	r30, r24
    14c6:	e2 59       	subi	r30, 0x92	; 146
    14c8:	ff 4f       	sbci	r31, 0xFF	; 255
    14ca:	20 81       	ld	r18, Z
    14cc:	22 23       	and	r18, r18
    14ce:	09 f4       	brne	.+2      	;  0x14d2
    14d0:	74 c0       	rjmp	.+232    	;  0x15ba
    14d2:	2d 81       	ldd	r18, Y+5	; 0x05
    14d4:	3e 81       	ldd	r19, Y+6	; 0x06
    14d6:	21 15       	cp	r18, r1
    14d8:	31 05       	cpc	r19, r1
    14da:	09 f4       	brne	.+2      	;  0x14de
    14dc:	6e c0       	rjmp	.+220    	;  0x15ba
    14de:	22 30       	cpi	r18, 0x02	; 2
    14e0:	31 05       	cpc	r19, r1
    14e2:	b0 f0       	brcs	.+44     	;  0x1510
    14e4:	02 30       	cpi	r16, 0x02	; 2
    14e6:	41 f4       	brne	.+16     	;  0x14f8
    14e8:	62 1b       	sub	r22, r18
    14ea:	73 0b       	sbc	r23, r19
    14ec:	9b 01       	movw	r18, r22
    14ee:	2f 5f       	subi	r18, 0xFF	; 255
    14f0:	3f 4f       	sbci	r19, 0xFF	; 255
    14f2:	3a 83       	std	Y+2, r19	; 0x02
    14f4:	29 83       	std	Y+1, r18	; 0x01
    14f6:	0c c0       	rjmp	.+24     	;  0x1510
    14f8:	03 30       	cpi	r16, 0x03	; 3
    14fa:	51 f4       	brne	.+20     	;  0x1510
    14fc:	4b 81       	ldd	r20, Y+3	; 0x03
    14fe:	5c 81       	ldd	r21, Y+4	; 0x04
    1500:	da 01       	movw	r26, r20
    1502:	a2 1b       	sub	r26, r18
    1504:	b3 0b       	sbc	r27, r19
    1506:	9d 01       	movw	r18, r26
    1508:	2f 5f       	subi	r18, 0xFF	; 255
    150a:	3f 4f       	sbci	r19, 0xFF	; 255
    150c:	3c 83       	std	Y+4, r19	; 0x04
    150e:	2b 83       	std	Y+3, r18	; 0x03
    1510:	7c 01       	movw	r14, r24
    1512:	10 2f       	mov	r17, r16
    1514:	11 70       	andi	r17, 0x01	; 1
    1516:	00 fd       	sbrc	r16, 0
    1518:	1d c0       	rjmp	.+58     	;  0x1554
    151a:	fc 01       	movw	r30, r24
    151c:	20 ad       	ldd	r18, Z+56	; 0x38
    151e:	31 ad       	ldd	r19, Z+57	; 0x39
    1520:	8b 81       	ldd	r24, Y+3	; 0x03
    1522:	9c 81       	ldd	r25, Y+4	; 0x04
    1524:	82 17       	cp	r24, r18
    1526:	93 07       	cpc	r25, r19
    1528:	08 f4       	brcc	.+2      	;  0x152c
    152a:	47 c0       	rjmp	.+142    	;  0x15ba
    152c:	22 ad       	ldd	r18, Z+58	; 0x3a
    152e:	33 ad       	ldd	r19, Z+59	; 0x3b
    1530:	82 17       	cp	r24, r18
    1532:	93 07       	cpc	r25, r19
    1534:	08 f0       	brcs	.+2      	;  0x1538
    1536:	41 c0       	rjmp	.+130    	;  0x15ba
    1538:	26 a9       	ldd	r18, Z+54	; 0x36
    153a:	37 a9       	ldd	r19, Z+55	; 0x37
    153c:	44 a9       	ldd	r20, Z+52	; 0x34
    153e:	55 a9       	ldd	r21, Z+53	; 0x35
    1540:	be 01       	movw	r22, r28
    1542:	6b 5f       	subi	r22, 0xFB	; 251
    1544:	7f 4f       	sbci	r23, 0xFF	; 255
    1546:	ce 01       	movw	r24, r28
    1548:	01 96       	adiw	r24, 0x01	; 1
    154a:	0e 94 10 0a 	call	0x1420	;  0x1420
    154e:	81 11       	cpse	r24, r1
    1550:	23 c0       	rjmp	.+70     	;  0x1598
    1552:	33 c0       	rjmp	.+102    	;  0x15ba
    1554:	dc 01       	movw	r26, r24
    1556:	d4 96       	adiw	r26, 0x34	; 52
    1558:	2d 91       	ld	r18, X+
    155a:	3c 91       	ld	r19, X
    155c:	d5 97       	sbiw	r26, 0x35	; 53
    155e:	89 81       	ldd	r24, Y+1	; 0x01
    1560:	9a 81       	ldd	r25, Y+2	; 0x02
    1562:	82 17       	cp	r24, r18
    1564:	93 07       	cpc	r25, r19
    1566:	48 f1       	brcs	.+82     	;  0x15ba
    1568:	d6 96       	adiw	r26, 0x36	; 54
    156a:	2d 91       	ld	r18, X+
    156c:	3c 91       	ld	r19, X
    156e:	d7 97       	sbiw	r26, 0x37	; 55
    1570:	82 17       	cp	r24, r18
    1572:	93 07       	cpc	r25, r19
    1574:	10 f5       	brcc	.+68     	;  0x15ba
    1576:	da 96       	adiw	r26, 0x3a	; 58
    1578:	2d 91       	ld	r18, X+
    157a:	3c 91       	ld	r19, X
    157c:	db 97       	sbiw	r26, 0x3b	; 59
    157e:	d8 96       	adiw	r26, 0x38	; 56
    1580:	4d 91       	ld	r20, X+
    1582:	5c 91       	ld	r21, X
    1584:	d9 97       	sbiw	r26, 0x39	; 57
    1586:	be 01       	movw	r22, r28
    1588:	6b 5f       	subi	r22, 0xFB	; 251
    158a:	7f 4f       	sbci	r23, 0xFF	; 255
    158c:	ce 01       	movw	r24, r28
    158e:	03 96       	adiw	r24, 0x03	; 3
    1590:	0e 94 10 0a 	call	0x1420	;  0x1420
    1594:	88 23       	and	r24, r24
    1596:	89 f0       	breq	.+34     	;  0x15ba
    1598:	d7 01       	movw	r26, r14
    159a:	90 96       	adiw	r26, 0x20	; 32
    159c:	ed 91       	ld	r30, X+
    159e:	fc 91       	ld	r31, X
    15a0:	91 97       	sbiw	r26, 0x21	; 33
    15a2:	04 80       	ldd	r0, Z+4	; 0x04
    15a4:	f5 81       	ldd	r31, Z+5	; 0x05
    15a6:	e0 2d       	mov	r30, r0
    15a8:	2d 81       	ldd	r18, Y+5	; 0x05
    15aa:	3e 81       	ldd	r19, Y+6	; 0x06
    15ac:	4b 81       	ldd	r20, Y+3	; 0x03
    15ae:	5c 81       	ldd	r21, Y+4	; 0x04
    15b0:	69 81       	ldd	r22, Y+1	; 0x01
    15b2:	7a 81       	ldd	r23, Y+2	; 0x02
    15b4:	01 2f       	mov	r16, r17
    15b6:	c7 01       	movw	r24, r14
    15b8:	09 95       	icall
    15ba:	26 96       	adiw	r28, 0x06	; 6
    15bc:	0f b6       	in	r0, 0x3f	; 63
    15be:	f8 94       	cli
    15c0:	de bf       	out	0x3e, r29	; 62
    15c2:	0f be       	out	0x3f, r0	; 63
    15c4:	cd bf       	out	0x3d, r28	; 61
    15c6:	df 91       	pop	r29
    15c8:	cf 91       	pop	r28
    15ca:	1f 91       	pop	r17
    15cc:	0f 91       	pop	r16
    15ce:	ff 90       	pop	r15
    15d0:	ef 90       	pop	r14
    15d2:	08 95       	ret
    15d4:	0f 93       	push	r16
    15d6:	00 e0       	ldi	r16, 0x00	; 0
    15d8:	0e 94 51 0a 	call	0x14a2	;  0x14a2
    15dc:	0f 91       	pop	r16
    15de:	08 95       	ret
    15e0:	0f 93       	push	r16
    15e2:	01 e0       	ldi	r16, 0x01	; 1
    15e4:	0e 94 51 0a 	call	0x14a2	;  0x14a2
    15e8:	0f 91       	pop	r16
    15ea:	08 95       	ret
    15ec:	0f 93       	push	r16
    15ee:	fc 01       	movw	r30, r24
    15f0:	80 ad       	ldd	r24, Z+56	; 0x38
    15f2:	91 ad       	ldd	r25, Z+57	; 0x39
    15f4:	48 17       	cp	r20, r24
    15f6:	59 07       	cpc	r21, r25
    15f8:	a8 f0       	brcs	.+42     	;  0x1624
    15fa:	82 ad       	ldd	r24, Z+58	; 0x3a
    15fc:	93 ad       	ldd	r25, Z+59	; 0x3b
    15fe:	48 17       	cp	r20, r24
    1600:	59 07       	cpc	r21, r25
    1602:	80 f4       	brcc	.+32     	;  0x1624
    1604:	84 a9       	ldd	r24, Z+52	; 0x34
    1606:	95 a9       	ldd	r25, Z+53	; 0x35
    1608:	68 17       	cp	r22, r24
    160a:	79 07       	cpc	r23, r25
    160c:	58 f0       	brcs	.+22     	;  0x1624
    160e:	86 a9       	ldd	r24, Z+54	; 0x36
    1610:	97 a9       	ldd	r25, Z+55	; 0x37
    1612:	68 17       	cp	r22, r24
    1614:	79 07       	cpc	r23, r25
    1616:	30 f4       	brcc	.+12     	;  0x1624
    1618:	cf 01       	movw	r24, r30
    161a:	00 e0       	ldi	r16, 0x00	; 0
    161c:	21 e0       	ldi	r18, 0x01	; 1
    161e:	30 e0       	ldi	r19, 0x00	; 0
    1620:	0e 94 51 0a 	call	0x14a2	;  0x14a2
    1624:	0f 91       	pop	r16
    1626:	08 95       	ret
    1628:	46 17       	cp	r20, r22
    162a:	57 07       	cpc	r21, r23
    162c:	40 f4       	brcc	.+16     	;  0x163e
    162e:	82 17       	cp	r24, r18
    1630:	93 07       	cpc	r25, r19
    1632:	68 f0       	brcs	.+26     	;  0x164e
    1634:	24 17       	cp	r18, r20
    1636:	35 07       	cpc	r19, r21
    1638:	60 f4       	brcc	.+24     	;  0x1652
    163a:	81 e0       	ldi	r24, 0x01	; 1
    163c:	08 95       	ret
    163e:	82 17       	cp	r24, r18
    1640:	93 07       	cpc	r25, r19
    1642:	48 f4       	brcc	.+18     	;  0x1656
    1644:	24 17       	cp	r18, r20
    1646:	35 07       	cpc	r19, r21
    1648:	40 f4       	brcc	.+16     	;  0x165a
    164a:	81 e0       	ldi	r24, 0x01	; 1
    164c:	08 95       	ret
    164e:	81 e0       	ldi	r24, 0x01	; 1
    1650:	08 95       	ret
    1652:	80 e0       	ldi	r24, 0x00	; 0
    1654:	08 95       	ret
    1656:	80 e0       	ldi	r24, 0x00	; 0
    1658:	08 95       	ret
    165a:	80 e0       	ldi	r24, 0x00	; 0
    165c:	08 95       	ret
    165e:	cf 92       	push	r12
    1660:	df 92       	push	r13
    1662:	ef 92       	push	r14
    1664:	ff 92       	push	r15
    1666:	0f 93       	push	r16
    1668:	1f 93       	push	r17
    166a:	cf 93       	push	r28
    166c:	df 93       	push	r29
    166e:	ec 01       	movw	r28, r24
    1670:	7b 01       	movw	r14, r22
    1672:	69 01       	movw	r12, r18
    1674:	98 01       	movw	r18, r16
    1676:	6a ad       	ldd	r22, Y+58	; 0x3a
    1678:	7b ad       	ldd	r23, Y+59	; 0x3b
    167a:	88 ad       	ldd	r24, Y+56	; 0x38
    167c:	99 ad       	ldd	r25, Y+57	; 0x39
    167e:	0e 94 14 0b 	call	0x1628	;  0x1628
    1682:	88 23       	and	r24, r24
    1684:	41 f0       	breq	.+16     	;  0x1696
    1686:	6e a9       	ldd	r22, Y+54	; 0x36
    1688:	7f a9       	ldd	r23, Y+55	; 0x37
    168a:	96 01       	movw	r18, r12
    168c:	a7 01       	movw	r20, r14
    168e:	8c a9       	ldd	r24, Y+52	; 0x34
    1690:	9d a9       	ldd	r25, Y+53	; 0x35
    1692:	0e 94 14 0b 	call	0x1628	;  0x1628
    1696:	df 91       	pop	r29
    1698:	cf 91       	pop	r28
    169a:	1f 91       	pop	r17
    169c:	0f 91       	pop	r16
    169e:	ff 90       	pop	r15
    16a0:	ef 90       	pop	r14
    16a2:	df 90       	pop	r13
    16a4:	cf 90       	pop	r12
    16a6:	08 95       	ret
    16a8:	0f 93       	push	r16
    16aa:	1f 93       	push	r17
    16ac:	cf 93       	push	r28
    16ae:	df 93       	push	r29
    16b0:	dc 01       	movw	r26, r24
    16b2:	ca 01       	movw	r24, r20
    16b4:	54 2f       	mov	r21, r20
    16b6:	57 70       	andi	r21, 0x07	; 7
    16b8:	c1 e0       	ldi	r28, 0x01	; 1
    16ba:	d0 e0       	ldi	r29, 0x00	; 0
    16bc:	05 2e       	mov	r0, r21
    16be:	02 c0       	rjmp	.+4      	;  0x16c4
    16c0:	cc 0f       	add	r28, r28
    16c2:	dd 1f       	adc	r29, r29
    16c4:	0a 94       	dec	r0
    16c6:	e2 f7       	brpl	.-8      	;  0x16c0
    16c8:	1c 2f       	mov	r17, r28
    16ca:	fd 01       	movw	r30, r26
    16cc:	ec 58       	subi	r30, 0x8C	; 140
    16ce:	ff 4f       	sbci	r31, 0xFF	; 255
    16d0:	e0 81       	ld	r30, Z
    16d2:	e2 30       	cpi	r30, 0x02	; 2
    16d4:	10 f0       	brcs	.+4      	;  0x16da
    16d6:	40 e0       	ldi	r20, 0x00	; 0
    16d8:	01 c0       	rjmp	.+2      	;  0x16dc
    16da:	4c 2f       	mov	r20, r28
    16dc:	e1 30       	cpi	r30, 0x01	; 1
    16de:	09 f4       	brne	.+2      	;  0x16e2
    16e0:	10 e0       	ldi	r17, 0x00	; 0
    16e2:	88 7f       	andi	r24, 0xF8	; 248
    16e4:	ed 91       	ld	r30, X+
    16e6:	fc 91       	ld	r31, X
    16e8:	11 97       	sbiw	r26, 0x01	; 1
    16ea:	c0 89       	ldd	r28, Z+16	; 0x10
    16ec:	c8 9f       	mul	r28, r24
    16ee:	f0 01       	movw	r30, r0
    16f0:	c9 9f       	mul	r28, r25
    16f2:	f0 0d       	add	r31, r0
    16f4:	11 24       	eor	r1, r1
    16f6:	92 96       	adiw	r26, 0x22	; 34
    16f8:	8d 91       	ld	r24, X+
    16fa:	9c 91       	ld	r25, X
    16fc:	93 97       	sbiw	r26, 0x23	; 35
    16fe:	6e 0f       	add	r22, r30
    1700:	7f 1f       	adc	r23, r31
    1702:	fc 01       	movw	r30, r24
    1704:	e6 0f       	add	r30, r22
    1706:	f7 1f       	adc	r31, r23
    1708:	01 11       	cpse	r16, r1
    170a:	08 c0       	rjmp	.+16     	;  0x171c
    170c:	80 81       	ld	r24, Z
    170e:	84 2b       	or	r24, r20
    1710:	81 27       	eor	r24, r17
    1712:	81 93       	st	Z+, r24
    1714:	21 50       	subi	r18, 0x01	; 1
    1716:	31 09       	sbc	r19, r1
    1718:	c9 f7       	brne	.-14     	;  0x170c
    171a:	21 c0       	rjmp	.+66     	;  0x175e
    171c:	90 81       	ld	r25, Z
    171e:	94 2b       	or	r25, r20
    1720:	91 27       	eor	r25, r17
    1722:	90 83       	st	Z, r25
    1724:	5f 5f       	subi	r21, 0xFF	; 255
    1726:	57 70       	andi	r21, 0x07	; 7
    1728:	21 50       	subi	r18, 0x01	; 1
    172a:	31 09       	sbc	r19, r1
    172c:	51 11       	cpse	r21, r1
    172e:	10 c0       	rjmp	.+32     	;  0x1750
    1730:	96 96       	adiw	r26, 0x26	; 38
    1732:	8d 91       	ld	r24, X+
    1734:	9c 91       	ld	r25, X
    1736:	97 97       	sbiw	r26, 0x27	; 39
    1738:	e8 0f       	add	r30, r24
    173a:	f9 1f       	adc	r31, r25
    173c:	ed 01       	movw	r28, r26
    173e:	cc 58       	subi	r28, 0x8C	; 140
    1740:	df 4f       	sbci	r29, 0xFF	; 255
    1742:	88 81       	ld	r24, Y
    1744:	82 30       	cpi	r24, 0x02	; 2
    1746:	08 f4       	brcc	.+2      	;  0x174a
    1748:	41 e0       	ldi	r20, 0x01	; 1
    174a:	81 30       	cpi	r24, 0x01	; 1
    174c:	21 f4       	brne	.+8      	;  0x1756
    174e:	04 c0       	rjmp	.+8      	;  0x1758
    1750:	44 0f       	add	r20, r20
    1752:	11 0f       	add	r17, r17
    1754:	01 c0       	rjmp	.+2      	;  0x1758
    1756:	11 e0       	ldi	r17, 0x01	; 1
    1758:	21 15       	cp	r18, r1
    175a:	31 05       	cpc	r19, r1
    175c:	f9 f6       	brne	.-66     	;  0x171c
    175e:	df 91       	pop	r29
    1760:	cf 91       	pop	r28
    1762:	1f 91       	pop	r17
    1764:	0f 91       	pop	r16
    1766:	08 95       	ret
    1768:	cf 93       	push	r28
    176a:	df 93       	push	r29
    176c:	fc 01       	movw	r30, r24
    176e:	a0 81       	ld	r26, Z
    1770:	b1 81       	ldd	r27, Z+1	; 0x01
    1772:	84 a1       	ldd	r24, Z+36	; 0x24
    1774:	90 e0       	ldi	r25, 0x00	; 0
    1776:	9c 01       	movw	r18, r24
    1778:	22 0f       	add	r18, r18
    177a:	33 1f       	adc	r19, r19
    177c:	22 0f       	add	r18, r18
    177e:	33 1f       	adc	r19, r19
    1780:	22 0f       	add	r18, r18
    1782:	33 1f       	adc	r19, r19
    1784:	31 a7       	std	Z+41, r19	; 0x29
    1786:	20 a7       	std	Z+40, r18	; 0x28
    1788:	50 96       	adiw	r26, 0x10	; 16
    178a:	2c 91       	ld	r18, X
    178c:	50 97       	sbiw	r26, 0x10	; 16
    178e:	30 e0       	ldi	r19, 0x00	; 0
    1790:	22 0f       	add	r18, r18
    1792:	33 1f       	adc	r19, r19
    1794:	22 0f       	add	r18, r18
    1796:	33 1f       	adc	r19, r19
    1798:	22 0f       	add	r18, r18
    179a:	33 1f       	adc	r19, r19
    179c:	37 a3       	std	Z+39, r19	; 0x27
    179e:	26 a3       	std	Z+38, r18	; 0x26
    17a0:	75 a1       	ldd	r23, Z+37	; 0x25
    17a2:	27 2f       	mov	r18, r23
    17a4:	30 e0       	ldi	r19, 0x00	; 0
    17a6:	a9 01       	movw	r20, r18
    17a8:	44 0f       	add	r20, r20
    17aa:	55 1f       	adc	r21, r21
    17ac:	44 0f       	add	r20, r20
    17ae:	55 1f       	adc	r21, r21
    17b0:	44 0f       	add	r20, r20
    17b2:	55 1f       	adc	r21, r21
    17b4:	53 a7       	std	Z+43, r21	; 0x2b
    17b6:	42 a7       	std	Z+42, r20	; 0x2a
    17b8:	28 0f       	add	r18, r24
    17ba:	39 1f       	adc	r19, r25
    17bc:	51 96       	adiw	r26, 0x11	; 17
    17be:	6c 91       	ld	r22, X
    17c0:	51 97       	sbiw	r26, 0x11	; 17
    17c2:	c6 2f       	mov	r28, r22
    17c4:	d0 e0       	ldi	r29, 0x00	; 0
    17c6:	c2 17       	cp	r28, r18
    17c8:	d3 07       	cpc	r29, r19
    17ca:	18 f4       	brcc	.+6      	;  0x17d2
    17cc:	ce 01       	movw	r24, r28
    17ce:	87 1b       	sub	r24, r23
    17d0:	91 09       	sbc	r25, r1
    17d2:	88 0f       	add	r24, r24
    17d4:	99 1f       	adc	r25, r25
    17d6:	88 0f       	add	r24, r24
    17d8:	99 1f       	adc	r25, r25
    17da:	88 0f       	add	r24, r24
    17dc:	99 1f       	adc	r25, r25
    17de:	55 a7       	std	Z+45, r21	; 0x2d
    17e0:	44 a7       	std	Z+44, r20	; 0x2c
    17e2:	84 0f       	add	r24, r20
    17e4:	95 1f       	adc	r25, r21
    17e6:	97 a7       	std	Z+47, r25	; 0x2f
    17e8:	86 a7       	std	Z+46, r24	; 0x2e
    17ea:	54 96       	adiw	r26, 0x14	; 20
    17ec:	8d 91       	ld	r24, X+
    17ee:	9c 91       	ld	r25, X
    17f0:	55 97       	sbiw	r26, 0x15	; 21
    17f2:	91 ab       	std	Z+49, r25	; 0x31
    17f4:	80 ab       	std	Z+48, r24	; 0x30
    17f6:	56 96       	adiw	r26, 0x16	; 22
    17f8:	8d 91       	ld	r24, X+
    17fa:	9c 91       	ld	r25, X
    17fc:	57 97       	sbiw	r26, 0x17	; 23
    17fe:	93 ab       	std	Z+51, r25	; 0x33
    1800:	82 ab       	std	Z+50, r24	; 0x32
    1802:	df 91       	pop	r29
    1804:	cf 91       	pop	r28
    1806:	08 95       	ret
    1808:	0e 94 b4 0b 	call	0x1768	;  0x1768
    180c:	08 95       	ret
    180e:	0f 93       	push	r16
    1810:	1f 93       	push	r17
    1812:	cf 93       	push	r28
    1814:	df 93       	push	r29
    1816:	ec 01       	movw	r28, r24
    1818:	fc 01       	movw	r30, r24
    181a:	ee 5b       	subi	r30, 0xBE	; 190
    181c:	ff 4f       	sbci	r31, 0xFF	; 255
    181e:	00 81       	ld	r16, Z
    1820:	11 81       	ldd	r17, Z+1	; 0x01
    1822:	2e ad       	ldd	r18, Y+62	; 0x3e
    1824:	3f ad       	ldd	r19, Y+63	; 0x3f
    1826:	32 97       	sbiw	r30, 0x02	; 2
    1828:	40 81       	ld	r20, Z
    182a:	51 81       	ldd	r21, Z+1	; 0x01
    182c:	6c ad       	ldd	r22, Y+60	; 0x3c
    182e:	7d ad       	ldd	r23, Y+61	; 0x3d
    1830:	0e 94 2f 0b 	call	0x165e	;  0x165e
    1834:	81 11       	cpse	r24, r1
    1836:	04 c0       	rjmp	.+8      	;  0x1840
    1838:	c2 59       	subi	r28, 0x92	; 146
    183a:	df 4f       	sbci	r29, 0xFF	; 255
    183c:	18 82       	st	Y, r1
    183e:	2f c0       	rjmp	.+94     	;  0x189e
    1840:	81 e0       	ldi	r24, 0x01	; 1
    1842:	fe 01       	movw	r30, r28
    1844:	e2 59       	subi	r30, 0x92	; 146
    1846:	ff 4f       	sbci	r31, 0xFF	; 255
    1848:	80 83       	st	Z, r24
    184a:	2c a9       	ldd	r18, Y+52	; 0x34
    184c:	3d a9       	ldd	r19, Y+53	; 0x35
    184e:	8c ad       	ldd	r24, Y+60	; 0x3c
    1850:	9d ad       	ldd	r25, Y+61	; 0x3d
    1852:	28 17       	cp	r18, r24
    1854:	39 07       	cpc	r19, r25
    1856:	10 f4       	brcc	.+4      	;  0x185c
    1858:	9d ab       	std	Y+53, r25	; 0x35
    185a:	8c ab       	std	Y+52, r24	; 0x34
    185c:	2e a9       	ldd	r18, Y+54	; 0x36
    185e:	3f a9       	ldd	r19, Y+55	; 0x37
    1860:	8e ad       	ldd	r24, Y+62	; 0x3e
    1862:	9f ad       	ldd	r25, Y+63	; 0x3f
    1864:	82 17       	cp	r24, r18
    1866:	93 07       	cpc	r25, r19
    1868:	10 f4       	brcc	.+4      	;  0x186e
    186a:	9f ab       	std	Y+55, r25	; 0x37
    186c:	8e ab       	std	Y+54, r24	; 0x36
    186e:	28 ad       	ldd	r18, Y+56	; 0x38
    1870:	39 ad       	ldd	r19, Y+57	; 0x39
    1872:	fe 01       	movw	r30, r28
    1874:	e0 5c       	subi	r30, 0xC0	; 192
    1876:	ff 4f       	sbci	r31, 0xFF	; 255
    1878:	80 81       	ld	r24, Z
    187a:	91 81       	ldd	r25, Z+1	; 0x01
    187c:	28 17       	cp	r18, r24
    187e:	39 07       	cpc	r19, r25
    1880:	10 f4       	brcc	.+4      	;  0x1886
    1882:	99 af       	std	Y+57, r25	; 0x39
    1884:	88 af       	std	Y+56, r24	; 0x38
    1886:	2a ad       	ldd	r18, Y+58	; 0x3a
    1888:	3b ad       	ldd	r19, Y+59	; 0x3b
    188a:	fe 01       	movw	r30, r28
    188c:	ee 5b       	subi	r30, 0xBE	; 190
    188e:	ff 4f       	sbci	r31, 0xFF	; 255
    1890:	80 81       	ld	r24, Z
    1892:	91 81       	ldd	r25, Z+1	; 0x01
    1894:	82 17       	cp	r24, r18
    1896:	93 07       	cpc	r25, r19
    1898:	10 f4       	brcc	.+4      	;  0x189e
    189a:	9b af       	std	Y+59, r25	; 0x3b
    189c:	8a af       	std	Y+58, r24	; 0x3a
    189e:	df 91       	pop	r29
    18a0:	cf 91       	pop	r28
    18a2:	1f 91       	pop	r17
    18a4:	0f 91       	pop	r16
    18a6:	08 95       	ret
    18a8:	fc 01       	movw	r30, r24
    18aa:	15 aa       	std	Z+53, r1	; 0x35
    18ac:	14 aa       	std	Z+52, r1	; 0x34
    18ae:	80 a9       	ldd	r24, Z+48	; 0x30
    18b0:	91 a9       	ldd	r25, Z+49	; 0x31
    18b2:	97 ab       	std	Z+55, r25	; 0x37
    18b4:	86 ab       	std	Z+54, r24	; 0x36
    18b6:	84 a5       	ldd	r24, Z+44	; 0x2c
    18b8:	95 a5       	ldd	r25, Z+45	; 0x2d
    18ba:	91 af       	std	Z+57, r25	; 0x39
    18bc:	80 af       	std	Z+56, r24	; 0x38
    18be:	86 a5       	ldd	r24, Z+46	; 0x2e
    18c0:	97 a5       	ldd	r25, Z+47	; 0x2f
    18c2:	93 af       	std	Z+59, r25	; 0x3b
    18c4:	82 af       	std	Z+58, r24	; 0x3a
    18c6:	cf 01       	movw	r24, r30
    18c8:	0e 94 07 0c 	call	0x180e	;  0x180e
    18cc:	08 95       	ret
    18ce:	0f 93       	push	r16
    18d0:	fa 01       	movw	r30, r20
    18d2:	dc 01       	movw	r26, r24
    18d4:	d2 96       	adiw	r26, 0x32	; 50
    18d6:	4d 91       	ld	r20, X+
    18d8:	5c 91       	ld	r21, X
    18da:	d3 97       	sbiw	r26, 0x33	; 51
    18dc:	4e 1b       	sub	r20, r30
    18de:	5f 0b       	sbc	r21, r31
    18e0:	00 ff       	sbrs	r16, 0
    18e2:	03 c0       	rjmp	.+6      	;  0x18ea
    18e4:	42 1b       	sub	r20, r18
    18e6:	53 0b       	sbc	r21, r19
    18e8:	02 c0       	rjmp	.+4      	;  0x18ee
    18ea:	41 50       	subi	r20, 0x01	; 1
    18ec:	51 09       	sbc	r21, r1
    18ee:	0e 94 42 0a 	call	0x1484	;  0x1484
    18f2:	0f 91       	pop	r16
    18f4:	08 95       	ret
    18f6:	dc 01       	movw	r26, r24
    18f8:	dd 96       	adiw	r26, 0x3d	; 61
    18fa:	1c 92       	st	X, r1
    18fc:	1e 92       	st	-X, r1
    18fe:	dc 97       	sbiw	r26, 0x3c	; 60
    1900:	fc 01       	movw	r30, r24
    1902:	e0 5c       	subi	r30, 0xC0	; 192
    1904:	ff 4f       	sbci	r31, 0xFF	; 255
    1906:	11 82       	std	Z+1, r1	; 0x01
    1908:	10 82       	st	Z, r1
    190a:	2f ef       	ldi	r18, 0xFF	; 255
    190c:	3f ef       	ldi	r19, 0xFF	; 255
    190e:	fc 01       	movw	r30, r24
    1910:	37 af       	std	Z+63, r19	; 0x3f
    1912:	26 af       	std	Z+62, r18	; 0x3e
    1914:	ee 5b       	subi	r30, 0xBE	; 190
    1916:	ff 4f       	sbci	r31, 0xFF	; 255
    1918:	31 83       	std	Z+1, r19	; 0x01
    191a:	20 83       	st	Z, r18
    191c:	90 96       	adiw	r26, 0x20	; 32
    191e:	ed 91       	ld	r30, X+
    1920:	fc 91       	ld	r31, X
    1922:	91 97       	sbiw	r26, 0x21	; 33
    1924:	02 80       	ldd	r0, Z+2	; 0x02
    1926:	f3 81       	ldd	r31, Z+3	; 0x03
    1928:	e0 2d       	mov	r30, r0
    192a:	09 95       	icall
    192c:	08 95       	ret
    192e:	0f 93       	push	r16
    1930:	1f 93       	push	r17
    1932:	cf 93       	push	r28
    1934:	df 93       	push	r29
    1936:	ec 01       	movw	r28, r24
    1938:	fc 01       	movw	r30, r24
    193a:	ec 5b       	subi	r30, 0xBC	; 188
    193c:	ff 4f       	sbci	r31, 0xFF	; 255
    193e:	11 82       	std	Z+1, r1	; 0x01
    1940:	10 82       	st	Z, r1
    1942:	3f 8f       	std	Y+31, r19	; 0x1f
    1944:	2e 8f       	std	Y+30, r18	; 0x1e
    1946:	7b a3       	std	Y+35, r23	; 0x23
    1948:	6a a3       	std	Y+34, r22	; 0x22
    194a:	4c a3       	std	Y+36, r20	; 0x24
    194c:	1d a2       	std	Y+37, r1	; 0x25
    194e:	3f 96       	adiw	r30, 0x0f	; 15
    1950:	10 82       	st	Z, r1
    1952:	b0 96       	adiw	r30, 0x20	; 32
    1954:	10 82       	st	Z, r1
    1956:	34 97       	sbiw	r30, 0x04	; 4
    1958:	10 82       	st	Z, r1
    195a:	35 96       	adiw	r30, 0x05	; 5
    195c:	81 e0       	ldi	r24, 0x01	; 1
    195e:	80 83       	st	Z, r24
    1960:	31 96       	adiw	r30, 0x01	; 1
    1962:	80 83       	st	Z, r24
    1964:	19 a3       	std	Y+33, r17	; 0x21
    1966:	08 a3       	std	Y+32, r16	; 0x20
    1968:	d8 01       	movw	r26, r16
    196a:	ed 91       	ld	r30, X+
    196c:	fc 91       	ld	r31, X
    196e:	ce 01       	movw	r24, r28
    1970:	09 95       	icall
    1972:	ce 01       	movw	r24, r28
    1974:	0e 94 7b 0c 	call	0x18f6	;  0x18f6
    1978:	ce 01       	movw	r24, r28
    197a:	0e 94 f1 09 	call	0x13e2	;  0x13e2
    197e:	ca 5a       	subi	r28, 0xAA	; 170
    1980:	df 4f       	sbci	r29, 0xFF	; 255
    1982:	18 82       	st	Y, r1
    1984:	df 91       	pop	r29
    1986:	cf 91       	pop	r28
    1988:	1f 91       	pop	r17
    198a:	0f 91       	pop	r16
    198c:	08 95       	ret
    198e:	66 23       	and	r22, r22
    1990:	29 f0       	breq	.+10     	;  0x199c
    1992:	6a 30       	cpi	r22, 0x0A	; 10
    1994:	31 f0       	breq	.+12     	;  0x19a2
    1996:	86 2f       	mov	r24, r22
    1998:	90 e0       	ldi	r25, 0x00	; 0
    199a:	08 95       	ret
    199c:	8f ef       	ldi	r24, 0xFF	; 255
    199e:	9f ef       	ldi	r25, 0xFF	; 255
    19a0:	08 95       	ret
    19a2:	8f ef       	ldi	r24, 0xFF	; 255
    19a4:	9f ef       	ldi	r25, 0xFF	; 255
    19a6:	08 95       	ret
    19a8:	fc 01       	movw	r30, r24
    19aa:	10 8e       	std	Z+24, r1	; 0x18
    19ac:	08 95       	ret
    19ae:	46 2f       	mov	r20, r22
    19b0:	dc 01       	movw	r26, r24
    19b2:	18 96       	adiw	r26, 0x08	; 8
    19b4:	ed 91       	ld	r30, X+
    19b6:	fc 91       	ld	r31, X
    19b8:	19 97       	sbiw	r26, 0x09	; 9
    19ba:	20 e0       	ldi	r18, 0x00	; 0
    19bc:	30 e0       	ldi	r19, 0x00	; 0
    19be:	60 e2       	ldi	r22, 0x20	; 32
    19c0:	09 95       	icall
    19c2:	08 95       	ret
    19c4:	9a 01       	movw	r18, r20
    19c6:	dc 01       	movw	r26, r24
    19c8:	18 96       	adiw	r26, 0x08	; 8
    19ca:	ed 91       	ld	r30, X+
    19cc:	fc 91       	ld	r31, X
    19ce:	19 97       	sbiw	r26, 0x09	; 9
    19d0:	46 2f       	mov	r20, r22
    19d2:	67 e1       	ldi	r22, 0x17	; 23
    19d4:	09 95       	icall
    19d6:	08 95       	ret
    19d8:	cf 93       	push	r28
    19da:	df 93       	push	r29
    19dc:	1f 92       	push	r1
    19de:	cd b7       	in	r28, 0x3d	; 61
    19e0:	de b7       	in	r29, 0x3e	; 62
    19e2:	69 83       	std	Y+1, r22	; 0x01
    19e4:	ae 01       	movw	r20, r28
    19e6:	4f 5f       	subi	r20, 0xFF	; 255
    19e8:	5f 4f       	sbci	r21, 0xFF	; 255
    19ea:	61 e0       	ldi	r22, 0x01	; 1
    19ec:	0e 94 e2 0c 	call	0x19c4	;  0x19c4
    19f0:	0f 90       	pop	r0
    19f2:	df 91       	pop	r29
    19f4:	cf 91       	pop	r28
    19f6:	08 95       	ret
    19f8:	bf 92       	push	r11
    19fa:	cf 92       	push	r12
    19fc:	df 92       	push	r13
    19fe:	ef 92       	push	r14
    1a00:	ff 92       	push	r15
    1a02:	0f 93       	push	r16
    1a04:	1f 93       	push	r17
    1a06:	cf 93       	push	r28
    1a08:	df 93       	push	r29
    1a0a:	ec 01       	movw	r28, r24
    1a0c:	b4 2e       	mov	r11, r20
    1a0e:	79 01       	movw	r14, r18
    1a10:	a8 81       	ld	r26, Y
    1a12:	b9 81       	ldd	r27, Y+1	; 0x01
    1a14:	1c 96       	adiw	r26, 0x0c	; 12
    1a16:	8c 91       	ld	r24, X
    1a18:	1c 97       	sbiw	r26, 0x0c	; 12
    1a1a:	81 70       	andi	r24, 0x01	; 1
    1a1c:	d8 2e       	mov	r13, r24
    1a1e:	81 e0       	ldi	r24, 0x01	; 1
    1a20:	c8 2e       	mov	r12, r24
    1a22:	cd 18       	sub	r12, r13
    1a24:	68 31       	cpi	r22, 0x18	; 24
    1a26:	09 f4       	brne	.+2      	;  0x1a2a
    1a28:	56 c0       	rjmp	.+172    	;  0x1ad6
    1a2a:	28 f4       	brcc	.+10     	;  0x1a36
    1a2c:	64 31       	cpi	r22, 0x14	; 20
    1a2e:	e9 f1       	breq	.+122    	;  0x1aaa
    1a30:	67 31       	cpi	r22, 0x17	; 23
    1a32:	b9 f1       	breq	.+110    	;  0x1aa2
    1a34:	74 c0       	rjmp	.+232    	;  0x1b1e
    1a36:	69 31       	cpi	r22, 0x19	; 25
    1a38:	09 f4       	brne	.+2      	;  0x1a3c
    1a3a:	5f c0       	rjmp	.+190    	;  0x1afa
    1a3c:	60 32       	cpi	r22, 0x20	; 32
    1a3e:	09 f4       	brne	.+2      	;  0x1a42
    1a40:	44 c0       	rjmp	.+136    	;  0x1aca
    1a42:	6d c0       	rjmp	.+218    	;  0x1b1e
    1a44:	f7 01       	movw	r30, r14
    1a46:	01 91       	ld	r16, Z+
    1a48:	7f 01       	movw	r14, r30
    1a4a:	ba 94       	dec	r11
    1a4c:	10 e0       	ldi	r17, 0x00	; 0
    1a4e:	27 c0       	rjmp	.+78     	;  0x1a9e
    1a50:	00 23       	and	r16, r16
    1a52:	34 f4       	brge	.+12     	;  0x1a60
    1a54:	41 e0       	ldi	r20, 0x01	; 1
    1a56:	61 e4       	ldi	r22, 0x41	; 65
    1a58:	ce 01       	movw	r24, r28
    1a5a:	0e 94 bd 0f 	call	0x1f7a	;  0x1f7a
    1a5e:	05 c0       	rjmp	.+10     	;  0x1a6a
    1a60:	40 e0       	ldi	r20, 0x00	; 0
    1a62:	61 e4       	ldi	r22, 0x41	; 65
    1a64:	ce 01       	movw	r24, r28
    1a66:	0e 94 bd 0f 	call	0x1f7a	;  0x1f7a
    1a6a:	00 0f       	add	r16, r16
    1a6c:	4c 2d       	mov	r20, r12
    1a6e:	60 e4       	ldi	r22, 0x40	; 64
    1a70:	ce 01       	movw	r24, r28
    1a72:	0e 94 bd 0f 	call	0x1f7a	;  0x1f7a
    1a76:	e8 81       	ld	r30, Y
    1a78:	f9 81       	ldd	r31, Y+1	; 0x01
    1a7a:	46 81       	ldd	r20, Z+6	; 0x06
    1a7c:	6c e2       	ldi	r22, 0x2C	; 44
    1a7e:	ce 01       	movw	r24, r28
    1a80:	0e 94 bd 0f 	call	0x1f7a	;  0x1f7a
    1a84:	4d 2d       	mov	r20, r13
    1a86:	60 e4       	ldi	r22, 0x40	; 64
    1a88:	ce 01       	movw	r24, r28
    1a8a:	0e 94 bd 0f 	call	0x1f7a	;  0x1f7a
    1a8e:	e8 81       	ld	r30, Y
    1a90:	f9 81       	ldd	r31, Y+1	; 0x01
    1a92:	47 81       	ldd	r20, Z+7	; 0x07
    1a94:	6c e2       	ldi	r22, 0x2C	; 44
    1a96:	ce 01       	movw	r24, r28
    1a98:	0e 94 bd 0f 	call	0x1f7a	;  0x1f7a
    1a9c:	1f 5f       	subi	r17, 0xFF	; 255
    1a9e:	18 30       	cpi	r17, 0x08	; 8
    1aa0:	b8 f2       	brcs	.-82     	;  0x1a50
    1aa2:	b1 10       	cpse	r11, r1
    1aa4:	cf cf       	rjmp	.-98     	;  0x1a44
    1aa6:	81 e0       	ldi	r24, 0x01	; 1
    1aa8:	3b c0       	rjmp	.+118    	;  0x1b20
    1aaa:	11 96       	adiw	r26, 0x01	; 1
    1aac:	4c 91       	ld	r20, X
    1aae:	69 e4       	ldi	r22, 0x49	; 73
    1ab0:	ce 01       	movw	r24, r28
    1ab2:	0e 94 bd 0f 	call	0x1f7a	;  0x1f7a
    1ab6:	e8 81       	ld	r30, Y
    1ab8:	f9 81       	ldd	r31, Y+1	; 0x01
    1aba:	44 85       	ldd	r20, Z+12	; 0x0c
    1abc:	41 70       	andi	r20, 0x01	; 1
    1abe:	60 e4       	ldi	r22, 0x40	; 64
    1ac0:	ce 01       	movw	r24, r28
    1ac2:	0e 94 bd 0f 	call	0x1f7a	;  0x1f7a
    1ac6:	81 e0       	ldi	r24, 0x01	; 1
    1ac8:	2b c0       	rjmp	.+86     	;  0x1b20
    1aca:	6a e4       	ldi	r22, 0x4A	; 74
    1acc:	ce 01       	movw	r24, r28
    1ace:	0e 94 bd 0f 	call	0x1f7a	;  0x1f7a
    1ad2:	81 e0       	ldi	r24, 0x01	; 1
    1ad4:	25 c0       	rjmp	.+74     	;  0x1b20
    1ad6:	4c 91       	ld	r20, X
    1ad8:	69 e4       	ldi	r22, 0x49	; 73
    1ada:	ce 01       	movw	r24, r28
    1adc:	0e 94 bd 0f 	call	0x1f7a	;  0x1f7a
    1ae0:	ea 85       	ldd	r30, Y+10	; 0x0a
    1ae2:	fb 85       	ldd	r31, Y+11	; 0x0b
    1ae4:	a8 81       	ld	r26, Y
    1ae6:	b9 81       	ldd	r27, Y+1	; 0x01
    1ae8:	20 e0       	ldi	r18, 0x00	; 0
    1aea:	30 e0       	ldi	r19, 0x00	; 0
    1aec:	12 96       	adiw	r26, 0x02	; 2
    1aee:	4c 91       	ld	r20, X
    1af0:	6c e2       	ldi	r22, 0x2C	; 44
    1af2:	ce 01       	movw	r24, r28
    1af4:	09 95       	icall
    1af6:	81 e0       	ldi	r24, 0x01	; 1
    1af8:	13 c0       	rjmp	.+38     	;  0x1b20
    1afa:	ea 85       	ldd	r30, Y+10	; 0x0a
    1afc:	fb 85       	ldd	r31, Y+11	; 0x0b
    1afe:	20 e0       	ldi	r18, 0x00	; 0
    1b00:	30 e0       	ldi	r19, 0x00	; 0
    1b02:	13 96       	adiw	r26, 0x03	; 3
    1b04:	4c 91       	ld	r20, X
    1b06:	6c e2       	ldi	r22, 0x2C	; 44
    1b08:	ce 01       	movw	r24, r28
    1b0a:	09 95       	icall
    1b0c:	e8 81       	ld	r30, Y
    1b0e:	f9 81       	ldd	r31, Y+1	; 0x01
    1b10:	41 81       	ldd	r20, Z+1	; 0x01
    1b12:	69 e4       	ldi	r22, 0x49	; 73
    1b14:	ce 01       	movw	r24, r28
    1b16:	0e 94 bd 0f 	call	0x1f7a	;  0x1f7a
    1b1a:	81 e0       	ldi	r24, 0x01	; 1
    1b1c:	01 c0       	rjmp	.+2      	;  0x1b20
    1b1e:	80 e0       	ldi	r24, 0x00	; 0
    1b20:	df 91       	pop	r29
    1b22:	cf 91       	pop	r28
    1b24:	1f 91       	pop	r17
    1b26:	0f 91       	pop	r16
    1b28:	ff 90       	pop	r15
    1b2a:	ef 90       	pop	r14
    1b2c:	df 90       	pop	r13
    1b2e:	cf 90       	pop	r12
    1b30:	bf 90       	pop	r11
    1b32:	08 95       	ret
    1b34:	46 2f       	mov	r20, r22
    1b36:	dc 01       	movw	r26, r24
    1b38:	16 96       	adiw	r26, 0x06	; 6
    1b3a:	ed 91       	ld	r30, X+
    1b3c:	fc 91       	ld	r31, X
    1b3e:	17 97       	sbiw	r26, 0x07	; 7
    1b40:	20 e0       	ldi	r18, 0x00	; 0
    1b42:	30 e0       	ldi	r19, 0x00	; 0
    1b44:	65 e1       	ldi	r22, 0x15	; 21
    1b46:	09 95       	icall
    1b48:	08 95       	ret
    1b4a:	46 2f       	mov	r20, r22
    1b4c:	dc 01       	movw	r26, r24
    1b4e:	16 96       	adiw	r26, 0x06	; 6
    1b50:	ed 91       	ld	r30, X+
    1b52:	fc 91       	ld	r31, X
    1b54:	17 97       	sbiw	r26, 0x07	; 7
    1b56:	20 e0       	ldi	r18, 0x00	; 0
    1b58:	30 e0       	ldi	r19, 0x00	; 0
    1b5a:	66 e1       	ldi	r22, 0x16	; 22
    1b5c:	09 95       	icall
    1b5e:	08 95       	ret
    1b60:	9a 01       	movw	r18, r20
    1b62:	dc 01       	movw	r26, r24
    1b64:	16 96       	adiw	r26, 0x06	; 6
    1b66:	ed 91       	ld	r30, X+
    1b68:	fc 91       	ld	r31, X
    1b6a:	17 97       	sbiw	r26, 0x07	; 7
    1b6c:	46 2f       	mov	r20, r22
    1b6e:	67 e1       	ldi	r22, 0x17	; 23
    1b70:	09 95       	icall
    1b72:	08 95       	ret
    1b74:	dc 01       	movw	r26, r24
    1b76:	16 96       	adiw	r26, 0x06	; 6
    1b78:	ed 91       	ld	r30, X+
    1b7a:	fc 91       	ld	r31, X
    1b7c:	17 97       	sbiw	r26, 0x07	; 7
    1b7e:	20 e0       	ldi	r18, 0x00	; 0
    1b80:	30 e0       	ldi	r19, 0x00	; 0
    1b82:	40 e0       	ldi	r20, 0x00	; 0
    1b84:	68 e1       	ldi	r22, 0x18	; 24
    1b86:	09 95       	icall
    1b88:	08 95       	ret
    1b8a:	dc 01       	movw	r26, r24
    1b8c:	16 96       	adiw	r26, 0x06	; 6
    1b8e:	ed 91       	ld	r30, X+
    1b90:	fc 91       	ld	r31, X
    1b92:	17 97       	sbiw	r26, 0x07	; 7
    1b94:	20 e0       	ldi	r18, 0x00	; 0
    1b96:	30 e0       	ldi	r19, 0x00	; 0
    1b98:	40 e0       	ldi	r20, 0x00	; 0
    1b9a:	69 e1       	ldi	r22, 0x19	; 25
    1b9c:	09 95       	icall
    1b9e:	08 95       	ret
    1ba0:	ef 92       	push	r14
    1ba2:	ff 92       	push	r15
    1ba4:	0f 93       	push	r16
    1ba6:	1f 93       	push	r17
    1ba8:	cf 93       	push	r28
    1baa:	df 93       	push	r29
    1bac:	1f 92       	push	r1
    1bae:	cd b7       	in	r28, 0x3d	; 61
    1bb0:	de b7       	in	r29, 0x3e	; 62
    1bb2:	7c 01       	movw	r14, r24
    1bb4:	8b 01       	movw	r16, r22
    1bb6:	d8 01       	movw	r26, r16
    1bb8:	6d 91       	ld	r22, X+
    1bba:	8d 01       	movw	r16, r26
    1bbc:	67 31       	cpi	r22, 0x17	; 23
    1bbe:	b9 f0       	breq	.+46     	;  0x1bee
    1bc0:	18 f4       	brcc	.+6      	;  0x1bc8
    1bc2:	65 31       	cpi	r22, 0x15	; 21
    1bc4:	30 f4       	brcc	.+12     	;  0x1bd2
    1bc6:	33 c0       	rjmp	.+102    	;  0x1c2e
    1bc8:	6a 31       	cpi	r22, 0x1A	; 26
    1bca:	e8 f0       	brcs	.+58     	;  0x1c06
    1bcc:	6e 3f       	cpi	r22, 0xFE	; 254
    1bce:	31 f1       	breq	.+76     	;  0x1c1c
    1bd0:	2e c0       	rjmp	.+92     	;  0x1c2e
    1bd2:	fd 01       	movw	r30, r26
    1bd4:	41 91       	ld	r20, Z+
    1bd6:	8f 01       	movw	r16, r30
    1bd8:	49 83       	std	Y+1, r20	; 0x01
    1bda:	d7 01       	movw	r26, r14
    1bdc:	16 96       	adiw	r26, 0x06	; 6
    1bde:	ed 91       	ld	r30, X+
    1be0:	fc 91       	ld	r31, X
    1be2:	17 97       	sbiw	r26, 0x07	; 7
    1be4:	20 e0       	ldi	r18, 0x00	; 0
    1be6:	30 e0       	ldi	r19, 0x00	; 0
    1be8:	c7 01       	movw	r24, r14
    1bea:	09 95       	icall
    1bec:	e4 cf       	rjmp	.-56     	;  0x1bb6
    1bee:	fd 01       	movw	r30, r26
    1bf0:	81 91       	ld	r24, Z+
    1bf2:	8f 01       	movw	r16, r30
    1bf4:	89 83       	std	Y+1, r24	; 0x01
    1bf6:	ae 01       	movw	r20, r28
    1bf8:	4f 5f       	subi	r20, 0xFF	; 255
    1bfa:	5f 4f       	sbci	r21, 0xFF	; 255
    1bfc:	61 e0       	ldi	r22, 0x01	; 1
    1bfe:	c7 01       	movw	r24, r14
    1c00:	0e 94 b0 0d 	call	0x1b60	;  0x1b60
    1c04:	d8 cf       	rjmp	.-80     	;  0x1bb6
    1c06:	d7 01       	movw	r26, r14
    1c08:	16 96       	adiw	r26, 0x06	; 6
    1c0a:	ed 91       	ld	r30, X+
    1c0c:	fc 91       	ld	r31, X
    1c0e:	17 97       	sbiw	r26, 0x07	; 7
    1c10:	20 e0       	ldi	r18, 0x00	; 0
    1c12:	30 e0       	ldi	r19, 0x00	; 0
    1c14:	40 e0       	ldi	r20, 0x00	; 0
    1c16:	c7 01       	movw	r24, r14
    1c18:	09 95       	icall
    1c1a:	cd cf       	rjmp	.-102    	;  0x1bb6
    1c1c:	fd 01       	movw	r30, r26
    1c1e:	41 91       	ld	r20, Z+
    1c20:	8f 01       	movw	r16, r30
    1c22:	49 83       	std	Y+1, r20	; 0x01
    1c24:	69 e2       	ldi	r22, 0x29	; 41
    1c26:	c7 01       	movw	r24, r14
    1c28:	0e 94 bd 0f 	call	0x1f7a	;  0x1f7a
    1c2c:	c4 cf       	rjmp	.-120    	;  0x1bb6
    1c2e:	0f 90       	pop	r0
    1c30:	df 91       	pop	r29
    1c32:	cf 91       	pop	r28
    1c34:	1f 91       	pop	r17
    1c36:	0f 91       	pop	r16
    1c38:	ff 90       	pop	r15
    1c3a:	ef 90       	pop	r14
    1c3c:	08 95       	ret
    1c3e:	ef 92       	push	r14
    1c40:	ff 92       	push	r15
    1c42:	0f 93       	push	r16
    1c44:	1f 93       	push	r17
    1c46:	cf 93       	push	r28
    1c48:	df 93       	push	r29
    1c4a:	8c 01       	movw	r16, r24
    1c4c:	c6 2f       	mov	r28, r22
    1c4e:	d4 2f       	mov	r29, r20
    1c50:	79 01       	movw	r14, r18
    1c52:	66 31       	cpi	r22, 0x16	; 22
    1c54:	a1 f0       	breq	.+40     	;  0x1c7e
    1c56:	28 f4       	brcc	.+10     	;  0x1c62
    1c58:	64 31       	cpi	r22, 0x14	; 20
    1c5a:	e9 f0       	breq	.+58     	;  0x1c96
    1c5c:	65 31       	cpi	r22, 0x15	; 21
    1c5e:	31 f0       	breq	.+12     	;  0x1c6c
    1c60:	25 c0       	rjmp	.+74     	;  0x1cac
    1c62:	67 31       	cpi	r22, 0x17	; 23
    1c64:	a9 f0       	breq	.+42     	;  0x1c90
    1c66:	6a 31       	cpi	r22, 0x1A	; 26
    1c68:	08 f5       	brcc	.+66     	;  0x1cac
    1c6a:	15 c0       	rjmp	.+42     	;  0x1c96
    1c6c:	60 e0       	ldi	r22, 0x00	; 0
    1c6e:	0e 94 d7 0c 	call	0x19ae	;  0x19ae
    1c72:	6d 2f       	mov	r22, r29
    1c74:	c8 01       	movw	r24, r16
    1c76:	0e 94 ec 0c 	call	0x19d8	;  0x19d8
    1c7a:	81 e0       	ldi	r24, 0x01	; 1
    1c7c:	18 c0       	rjmp	.+48     	;  0x1cae
    1c7e:	60 e0       	ldi	r22, 0x00	; 0
    1c80:	0e 94 d7 0c 	call	0x19ae	;  0x19ae
    1c84:	6d 2f       	mov	r22, r29
    1c86:	c8 01       	movw	r24, r16
    1c88:	0e 94 ec 0c 	call	0x19d8	;  0x19d8
    1c8c:	81 e0       	ldi	r24, 0x01	; 1
    1c8e:	0f c0       	rjmp	.+30     	;  0x1cae
    1c90:	61 e0       	ldi	r22, 0x01	; 1
    1c92:	0e 94 d7 0c 	call	0x19ae	;  0x19ae
    1c96:	d8 01       	movw	r26, r16
    1c98:	18 96       	adiw	r26, 0x08	; 8
    1c9a:	ed 91       	ld	r30, X+
    1c9c:	fc 91       	ld	r31, X
    1c9e:	19 97       	sbiw	r26, 0x09	; 9
    1ca0:	97 01       	movw	r18, r14
    1ca2:	4d 2f       	mov	r20, r29
    1ca4:	6c 2f       	mov	r22, r28
    1ca6:	c8 01       	movw	r24, r16
    1ca8:	09 95       	icall
    1caa:	01 c0       	rjmp	.+2      	;  0x1cae
    1cac:	80 e0       	ldi	r24, 0x00	; 0
    1cae:	df 91       	pop	r29
    1cb0:	cf 91       	pop	r28
    1cb2:	1f 91       	pop	r17
    1cb4:	0f 91       	pop	r16
    1cb6:	ff 90       	pop	r15
    1cb8:	ef 90       	pop	r14
    1cba:	08 95       	ret
    1cbc:	fc 01       	movw	r30, r24
    1cbe:	71 83       	std	Z+1, r23	; 0x01
    1cc0:	60 83       	st	Z, r22
    1cc2:	fb 01       	movw	r30, r22
    1cc4:	22 89       	ldd	r18, Z+18	; 0x12
    1cc6:	fc 01       	movw	r30, r24
    1cc8:	24 8b       	std	Z+20, r18	; 0x14
    1cca:	08 95       	ret
    1ccc:	cf 93       	push	r28
    1cce:	df 93       	push	r29
    1cd0:	ec 01       	movw	r28, r24
    1cd2:	ea 85       	ldd	r30, Y+10	; 0x0a
    1cd4:	fb 85       	ldd	r31, Y+11	; 0x0b
    1cd6:	20 e0       	ldi	r18, 0x00	; 0
    1cd8:	30 e0       	ldi	r19, 0x00	; 0
    1cda:	40 e0       	ldi	r20, 0x00	; 0
    1cdc:	68 e2       	ldi	r22, 0x28	; 40
    1cde:	09 95       	icall
    1ce0:	ee 81       	ldd	r30, Y+6	; 0x06
    1ce2:	ff 81       	ldd	r31, Y+7	; 0x07
    1ce4:	20 e0       	ldi	r18, 0x00	; 0
    1ce6:	30 e0       	ldi	r19, 0x00	; 0
    1ce8:	40 e0       	ldi	r20, 0x00	; 0
    1cea:	64 e1       	ldi	r22, 0x14	; 20
    1cec:	ce 01       	movw	r24, r28
    1cee:	09 95       	icall
    1cf0:	41 e0       	ldi	r20, 0x01	; 1
    1cf2:	6b e4       	ldi	r22, 0x4B	; 75
    1cf4:	ce 01       	movw	r24, r28
    1cf6:	0e 94 bd 0f 	call	0x1f7a	;  0x1f7a
    1cfa:	e8 81       	ld	r30, Y
    1cfc:	f9 81       	ldd	r31, Y+1	; 0x01
    1cfe:	44 81       	ldd	r20, Z+4	; 0x04
    1d00:	69 e2       	ldi	r22, 0x29	; 41
    1d02:	ce 01       	movw	r24, r28
    1d04:	0e 94 bd 0f 	call	0x1f7a	;  0x1f7a
    1d08:	40 e0       	ldi	r20, 0x00	; 0
    1d0a:	6b e4       	ldi	r22, 0x4B	; 75
    1d0c:	ce 01       	movw	r24, r28
    1d0e:	0e 94 bd 0f 	call	0x1f7a	;  0x1f7a
    1d12:	e8 81       	ld	r30, Y
    1d14:	f9 81       	ldd	r31, Y+1	; 0x01
    1d16:	44 81       	ldd	r20, Z+4	; 0x04
    1d18:	69 e2       	ldi	r22, 0x29	; 41
    1d1a:	ce 01       	movw	r24, r28
    1d1c:	0e 94 bd 0f 	call	0x1f7a	;  0x1f7a
    1d20:	41 e0       	ldi	r20, 0x01	; 1
    1d22:	6b e4       	ldi	r22, 0x4B	; 75
    1d24:	ce 01       	movw	r24, r28
    1d26:	0e 94 bd 0f 	call	0x1f7a	;  0x1f7a
    1d2a:	e8 81       	ld	r30, Y
    1d2c:	f9 81       	ldd	r31, Y+1	; 0x01
    1d2e:	45 81       	ldd	r20, Z+5	; 0x05
    1d30:	69 e2       	ldi	r22, 0x29	; 41
    1d32:	ce 01       	movw	r24, r28
    1d34:	0e 94 bd 0f 	call	0x1f7a	;  0x1f7a
    1d38:	df 91       	pop	r29
    1d3a:	cf 91       	pop	r28
    1d3c:	08 95       	ret
    1d3e:	0f 93       	push	r16
    1d40:	1f 93       	push	r17
    1d42:	cf 93       	push	r28
    1d44:	df 93       	push	r29
    1d46:	00 d0       	rcall	.+0      	;  0x1d48
    1d48:	00 d0       	rcall	.+0      	;  0x1d4a
    1d4a:	1f 92       	push	r1
    1d4c:	cd b7       	in	r28, 0x3d	; 61
    1d4e:	de b7       	in	r29, 0x3e	; 62
    1d50:	6c 83       	std	Y+4, r22	; 0x04
    1d52:	4d 83       	std	Y+5, r20	; 0x05
    1d54:	2b 83       	std	Y+3, r18	; 0x03
    1d56:	1a 83       	std	Y+2, r17	; 0x02
    1d58:	09 83       	std	Y+1, r16	; 0x01
    1d5a:	dc 01       	movw	r26, r24
    1d5c:	14 96       	adiw	r26, 0x04	; 4
    1d5e:	ed 91       	ld	r30, X+
    1d60:	fc 91       	ld	r31, X
    1d62:	15 97       	sbiw	r26, 0x05	; 5
    1d64:	9e 01       	movw	r18, r28
    1d66:	2f 5f       	subi	r18, 0xFF	; 255
    1d68:	3f 4f       	sbci	r19, 0xFF	; 255
    1d6a:	41 e0       	ldi	r20, 0x01	; 1
    1d6c:	6f e0       	ldi	r22, 0x0F	; 15
    1d6e:	09 95       	icall
    1d70:	0f 90       	pop	r0
    1d72:	0f 90       	pop	r0
    1d74:	0f 90       	pop	r0
    1d76:	0f 90       	pop	r0
    1d78:	0f 90       	pop	r0
    1d7a:	df 91       	pop	r29
    1d7c:	cf 91       	pop	r28
    1d7e:	1f 91       	pop	r17
    1d80:	0f 91       	pop	r16
    1d82:	08 95       	ret
    1d84:	dc 01       	movw	r26, r24
    1d86:	14 96       	adiw	r26, 0x04	; 4
    1d88:	ed 91       	ld	r30, X+
    1d8a:	fc 91       	ld	r31, X
    1d8c:	15 97       	sbiw	r26, 0x05	; 5
    1d8e:	20 e0       	ldi	r18, 0x00	; 0
    1d90:	30 e0       	ldi	r19, 0x00	; 0
    1d92:	40 e0       	ldi	r20, 0x00	; 0
    1d94:	69 e0       	ldi	r22, 0x09	; 9
    1d96:	09 95       	icall
    1d98:	08 95       	ret
    1d9a:	dc 01       	movw	r26, r24
    1d9c:	14 96       	adiw	r26, 0x04	; 4
    1d9e:	ed 91       	ld	r30, X+
    1da0:	fc 91       	ld	r31, X
    1da2:	15 97       	sbiw	r26, 0x05	; 5
    1da4:	20 e0       	ldi	r18, 0x00	; 0
    1da6:	30 e0       	ldi	r19, 0x00	; 0
    1da8:	40 e0       	ldi	r20, 0x00	; 0
    1daa:	6a e0       	ldi	r22, 0x0A	; 10
    1dac:	09 95       	icall
    1dae:	08 95       	ret
    1db0:	46 2f       	mov	r20, r22
    1db2:	dc 01       	movw	r26, r24
    1db4:	14 96       	adiw	r26, 0x04	; 4
    1db6:	ed 91       	ld	r30, X+
    1db8:	fc 91       	ld	r31, X
    1dba:	15 97       	sbiw	r26, 0x05	; 5
    1dbc:	20 e0       	ldi	r18, 0x00	; 0
    1dbe:	30 e0       	ldi	r19, 0x00	; 0
    1dc0:	6b e0       	ldi	r22, 0x0B	; 11
    1dc2:	09 95       	icall
    1dc4:	08 95       	ret
    1dc6:	46 2f       	mov	r20, r22
    1dc8:	dc 01       	movw	r26, r24
    1dca:	14 96       	adiw	r26, 0x04	; 4
    1dcc:	ed 91       	ld	r30, X+
    1dce:	fc 91       	ld	r31, X
    1dd0:	15 97       	sbiw	r26, 0x05	; 5
    1dd2:	20 e0       	ldi	r18, 0x00	; 0
    1dd4:	30 e0       	ldi	r19, 0x00	; 0
    1dd6:	6d e0       	ldi	r22, 0x0D	; 13
    1dd8:	09 95       	icall
    1dda:	08 95       	ret
    1ddc:	46 2f       	mov	r20, r22
    1dde:	dc 01       	movw	r26, r24
    1de0:	14 96       	adiw	r26, 0x04	; 4
    1de2:	ed 91       	ld	r30, X+
    1de4:	fc 91       	ld	r31, X
    1de6:	15 97       	sbiw	r26, 0x05	; 5
    1de8:	20 e0       	ldi	r18, 0x00	; 0
    1dea:	30 e0       	ldi	r19, 0x00	; 0
    1dec:	6e e0       	ldi	r22, 0x0E	; 14
    1dee:	09 95       	icall
    1df0:	08 95       	ret
    1df2:	dc 01       	movw	r26, r24
    1df4:	14 96       	adiw	r26, 0x04	; 4
    1df6:	ed 91       	ld	r30, X+
    1df8:	fc 91       	ld	r31, X
    1dfa:	15 97       	sbiw	r26, 0x05	; 5
    1dfc:	20 e0       	ldi	r18, 0x00	; 0
    1dfe:	30 e0       	ldi	r19, 0x00	; 0
    1e00:	40 e0       	ldi	r20, 0x00	; 0
    1e02:	60 e1       	ldi	r22, 0x10	; 16
    1e04:	09 95       	icall
    1e06:	08 95       	ret
    1e08:	df 92       	push	r13
    1e0a:	ef 92       	push	r14
    1e0c:	ff 92       	push	r15
    1e0e:	0f 93       	push	r16
    1e10:	1f 93       	push	r17
    1e12:	cf 93       	push	r28
    1e14:	df 93       	push	r29
    1e16:	8c 01       	movw	r16, r24
    1e18:	c4 2f       	mov	r28, r20
    1e1a:	79 01       	movw	r14, r18
    1e1c:	6e 30       	cpi	r22, 0x0E	; 14
    1e1e:	09 f4       	brne	.+2      	;  0x1e22
    1e20:	4c c0       	rjmp	.+152    	;  0x1eba
    1e22:	6f 30       	cpi	r22, 0x0F	; 15
    1e24:	21 f0       	breq	.+8      	;  0x1e2e
    1e26:	6b 30       	cpi	r22, 0x0B	; 11
    1e28:	09 f0       	breq	.+2      	;  0x1e2c
    1e2a:	58 c0       	rjmp	.+176    	;  0x1edc
    1e2c:	38 c0       	rjmp	.+112    	;  0x1e9e
    1e2e:	0e 94 ba 0d 	call	0x1b74	;  0x1b74
    1e32:	f7 01       	movw	r30, r14
    1e34:	d3 80       	ldd	r13, Z+3	; 0x03
    1e36:	dd 0c       	add	r13, r13
    1e38:	dd 0c       	add	r13, r13
    1e3a:	dd 0c       	add	r13, r13
    1e3c:	f8 01       	movw	r30, r16
    1e3e:	84 89       	ldd	r24, Z+20	; 0x14
    1e40:	d8 0e       	add	r13, r24
    1e42:	6d 2d       	mov	r22, r13
    1e44:	62 95       	swap	r22
    1e46:	6f 70       	andi	r22, 0x0F	; 15
    1e48:	60 61       	ori	r22, 0x10	; 16
    1e4a:	c8 01       	movw	r24, r16
    1e4c:	0e 94 9a 0d 	call	0x1b34	;  0x1b34
    1e50:	6d 2d       	mov	r22, r13
    1e52:	6f 70       	andi	r22, 0x0F	; 15
    1e54:	c8 01       	movw	r24, r16
    1e56:	0e 94 9a 0d 	call	0x1b34	;  0x1b34
    1e5a:	f7 01       	movw	r30, r14
    1e5c:	64 81       	ldd	r22, Z+4	; 0x04
    1e5e:	60 6b       	ori	r22, 0xB0	; 176
    1e60:	c8 01       	movw	r24, r16
    1e62:	0e 94 9a 0d 	call	0x1b34	;  0x1b34
    1e66:	f7 01       	movw	r30, r14
    1e68:	d2 81       	ldd	r29, Z+2	; 0x02
    1e6a:	dd 0f       	add	r29, r29
    1e6c:	dd 0f       	add	r29, r29
    1e6e:	dd 0f       	add	r29, r29
    1e70:	e0 80       	ld	r14, Z
    1e72:	f1 80       	ldd	r15, Z+1	; 0x01
    1e74:	8d 2d       	mov	r24, r13
    1e76:	90 e0       	ldi	r25, 0x00	; 0
    1e78:	8d 0f       	add	r24, r29
    1e7a:	91 1d       	adc	r25, r1
    1e7c:	85 38       	cpi	r24, 0x85	; 133
    1e7e:	91 05       	cpc	r25, r1
    1e80:	10 f0       	brcs	.+4      	;  0x1e86
    1e82:	d4 e8       	ldi	r29, 0x84	; 132
    1e84:	dd 19       	sub	r29, r13
    1e86:	a7 01       	movw	r20, r14
    1e88:	6d 2f       	mov	r22, r29
    1e8a:	c8 01       	movw	r24, r16
    1e8c:	0e 94 b0 0d 	call	0x1b60	;  0x1b60
    1e90:	c1 50       	subi	r28, 0x01	; 1
    1e92:	c9 f7       	brne	.-14     	;  0x1e86
    1e94:	c8 01       	movw	r24, r16
    1e96:	0e 94 c5 0d 	call	0x1b8a	;  0x1b8a
    1e9a:	81 e0       	ldi	r24, 0x01	; 1
    1e9c:	20 c0       	rjmp	.+64     	;  0x1ede
    1e9e:	41 11       	cpse	r20, r1
    1ea0:	06 c0       	rjmp	.+12     	;  0x1eae
    1ea2:	60 e8       	ldi	r22, 0x80	; 128
    1ea4:	71 e0       	ldi	r23, 0x01	; 1
    1ea6:	0e 94 d0 0d 	call	0x1ba0	;  0x1ba0
    1eaa:	81 e0       	ldi	r24, 0x01	; 1
    1eac:	18 c0       	rjmp	.+48     	;  0x1ede
    1eae:	69 e7       	ldi	r22, 0x79	; 121
    1eb0:	71 e0       	ldi	r23, 0x01	; 1
    1eb2:	0e 94 d0 0d 	call	0x1ba0	;  0x1ba0
    1eb6:	81 e0       	ldi	r24, 0x01	; 1
    1eb8:	12 c0       	rjmp	.+36     	;  0x1ede
    1eba:	0e 94 ba 0d 	call	0x1b74	;  0x1b74
    1ebe:	61 e8       	ldi	r22, 0x81	; 129
    1ec0:	c8 01       	movw	r24, r16
    1ec2:	0e 94 9a 0d 	call	0x1b34	;  0x1b34
    1ec6:	6c 2f       	mov	r22, r28
    1ec8:	66 95       	lsr	r22
    1eca:	66 95       	lsr	r22
    1ecc:	c8 01       	movw	r24, r16
    1ece:	0e 94 a5 0d 	call	0x1b4a	;  0x1b4a
    1ed2:	c8 01       	movw	r24, r16
    1ed4:	0e 94 c5 0d 	call	0x1b8a	;  0x1b8a
    1ed8:	81 e0       	ldi	r24, 0x01	; 1
    1eda:	01 c0       	rjmp	.+2      	;  0x1ede
    1edc:	80 e0       	ldi	r24, 0x00	; 0
    1ede:	df 91       	pop	r29
    1ee0:	cf 91       	pop	r28
    1ee2:	1f 91       	pop	r17
    1ee4:	0f 91       	pop	r16
    1ee6:	ff 90       	pop	r15
    1ee8:	ef 90       	pop	r14
    1eea:	df 90       	pop	r13
    1eec:	08 95       	ret
    1eee:	0f 93       	push	r16
    1ef0:	1f 93       	push	r17
    1ef2:	cf 93       	push	r28
    1ef4:	df 93       	push	r29
    1ef6:	8c 01       	movw	r16, r24
    1ef8:	c6 2f       	mov	r28, r22
    1efa:	d4 2f       	mov	r29, r20
    1efc:	0e 94 04 0f 	call	0x1e08	;  0x1e08
    1f00:	81 11       	cpse	r24, r1
    1f02:	35 c0       	rjmp	.+106    	;  0x1f6e
    1f04:	ca 30       	cpi	r28, 0x0A	; 10
    1f06:	59 f0       	breq	.+22     	;  0x1f1e
    1f08:	cd 30       	cpi	r28, 0x0D	; 13
    1f0a:	99 f0       	breq	.+38     	;  0x1f32
    1f0c:	c9 30       	cpi	r28, 0x09	; 9
    1f0e:	81 f5       	brne	.+96     	;  0x1f70
    1f10:	63 e5       	ldi	r22, 0x53	; 83
    1f12:	71 e0       	ldi	r23, 0x01	; 1
    1f14:	c8 01       	movw	r24, r16
    1f16:	0e 94 5e 0e 	call	0x1cbc	;  0x1cbc
    1f1a:	81 e0       	ldi	r24, 0x01	; 1
    1f1c:	29 c0       	rjmp	.+82     	;  0x1f70
    1f1e:	c8 01       	movw	r24, r16
    1f20:	0e 94 66 0e 	call	0x1ccc	;  0x1ccc
    1f24:	62 e3       	ldi	r22, 0x32	; 50
    1f26:	71 e0       	ldi	r23, 0x01	; 1
    1f28:	c8 01       	movw	r24, r16
    1f2a:	0e 94 d0 0d 	call	0x1ba0	;  0x1ba0
    1f2e:	81 e0       	ldi	r24, 0x01	; 1
    1f30:	1f c0       	rjmp	.+62     	;  0x1f70
    1f32:	d1 11       	cpse	r29, r1
    1f34:	0e c0       	rjmp	.+28     	;  0x1f52
    1f36:	62 e7       	ldi	r22, 0x72	; 114
    1f38:	71 e0       	ldi	r23, 0x01	; 1
    1f3a:	c8 01       	movw	r24, r16
    1f3c:	0e 94 d0 0d 	call	0x1ba0	;  0x1ba0
    1f40:	d8 01       	movw	r26, r16
    1f42:	ed 91       	ld	r30, X+
    1f44:	fc 91       	ld	r31, X
    1f46:	11 97       	sbiw	r26, 0x01	; 1
    1f48:	82 89       	ldd	r24, Z+18	; 0x12
    1f4a:	54 96       	adiw	r26, 0x14	; 20
    1f4c:	8c 93       	st	X, r24
    1f4e:	81 e0       	ldi	r24, 0x01	; 1
    1f50:	0f c0       	rjmp	.+30     	;  0x1f70
    1f52:	6b e6       	ldi	r22, 0x6B	; 107
    1f54:	71 e0       	ldi	r23, 0x01	; 1
    1f56:	c8 01       	movw	r24, r16
    1f58:	0e 94 d0 0d 	call	0x1ba0	;  0x1ba0
    1f5c:	d8 01       	movw	r26, r16
    1f5e:	ed 91       	ld	r30, X+
    1f60:	fc 91       	ld	r31, X
    1f62:	11 97       	sbiw	r26, 0x01	; 1
    1f64:	83 89       	ldd	r24, Z+19	; 0x13
    1f66:	54 96       	adiw	r26, 0x14	; 20
    1f68:	8c 93       	st	X, r24
    1f6a:	81 e0       	ldi	r24, 0x01	; 1
    1f6c:	01 c0       	rjmp	.+2      	;  0x1f70
    1f6e:	81 e0       	ldi	r24, 0x01	; 1
    1f70:	df 91       	pop	r29
    1f72:	cf 91       	pop	r28
    1f74:	1f 91       	pop	r17
    1f76:	0f 91       	pop	r16
    1f78:	08 95       	ret
    1f7a:	dc 01       	movw	r26, r24
    1f7c:	1a 96       	adiw	r26, 0x0a	; 10
    1f7e:	ed 91       	ld	r30, X+
    1f80:	fc 91       	ld	r31, X
    1f82:	1b 97       	sbiw	r26, 0x0b	; 11
    1f84:	20 e0       	ldi	r18, 0x00	; 0
    1f86:	30 e0       	ldi	r19, 0x00	; 0
    1f88:	09 95       	icall
    1f8a:	08 95       	ret
    1f8c:	80 e0       	ldi	r24, 0x00	; 0
    1f8e:	08 95       	ret
    1f90:	fc 01       	movw	r30, r24
    1f92:	11 82       	std	Z+1, r1	; 0x01
    1f94:	10 82       	st	Z, r1
    1f96:	86 ec       	ldi	r24, 0xC6	; 198
    1f98:	9f e0       	ldi	r25, 0x0F	; 15
    1f9a:	95 83       	std	Z+5, r25	; 0x05
    1f9c:	84 83       	std	Z+4, r24	; 0x04
    1f9e:	97 83       	std	Z+7, r25	; 0x07
    1fa0:	86 83       	std	Z+6, r24	; 0x06
    1fa2:	91 87       	std	Z+9, r25	; 0x09
    1fa4:	80 87       	std	Z+8, r24	; 0x08
    1fa6:	93 87       	std	Z+11, r25	; 0x0b
    1fa8:	82 87       	std	Z+10, r24	; 0x0a
    1faa:	15 8a       	std	Z+21, r1	; 0x15
    1fac:	10 8e       	std	Z+24, r1	; 0x18
    1fae:	14 86       	std	Z+12, r1	; 0x0c
    1fb0:	15 86       	std	Z+13, r1	; 0x0d
    1fb2:	16 86       	std	Z+14, r1	; 0x0e
    1fb4:	17 86       	std	Z+15, r1	; 0x0f
    1fb6:	8f ef       	ldi	r24, 0xFF	; 255
    1fb8:	86 8b       	std	Z+22, r24	; 0x16
    1fba:	82 8f       	std	Z+26, r24	; 0x1a
    1fbc:	08 95       	ret
    1fbe:	af 92       	push	r10
    1fc0:	bf 92       	push	r11
    1fc2:	cf 92       	push	r12
    1fc4:	df 92       	push	r13
    1fc6:	ef 92       	push	r14
    1fc8:	ff 92       	push	r15
    1fca:	0f 93       	push	r16
    1fcc:	1f 93       	push	r17
    1fce:	cf 93       	push	r28
    1fd0:	df 93       	push	r29
    1fd2:	ec 01       	movw	r28, r24
    1fd4:	5b 01       	movw	r10, r22
    1fd6:	6a 01       	movw	r12, r20
    1fd8:	79 01       	movw	r14, r18
    1fda:	0e 94 c8 0f 	call	0x1f90	;  0x1f90
    1fde:	bd 82       	std	Y+5, r11	; 0x05
    1fe0:	ac 82       	std	Y+4, r10	; 0x04
    1fe2:	df 82       	std	Y+7, r13	; 0x07
    1fe4:	ce 82       	std	Y+6, r12	; 0x06
    1fe6:	f9 86       	std	Y+9, r15	; 0x09
    1fe8:	e8 86       	std	Y+8, r14	; 0x08
    1fea:	1b 87       	std	Y+11, r17	; 0x0b
    1fec:	0a 87       	std	Y+10, r16	; 0x0a
    1fee:	ce 01       	movw	r24, r28
    1ff0:	0e 94 c2 0e 	call	0x1d84	;  0x1d84
    1ff4:	df 91       	pop	r29
    1ff6:	cf 91       	pop	r28
    1ff8:	1f 91       	pop	r17
    1ffa:	0f 91       	pop	r16
    1ffc:	ff 90       	pop	r15
    1ffe:	ef 90       	pop	r14
    2000:	df 90       	pop	r13
    2002:	cf 90       	pop	r12
    2004:	bf 90       	pop	r11
    2006:	af 90       	pop	r10
    2008:	08 95       	ret
    200a:	1f 92       	push	r1
    200c:	0f 92       	push	r0
    200e:	0f b6       	in	r0, 0x3f	; 63
    2010:	0f 92       	push	r0
    2012:	11 24       	eor	r1, r1
    2014:	8f 93       	push	r24
    2016:	81 e0       	ldi	r24, 0x01	; 1
    2018:	80 93 00 01 	sts	0x0100, r24	;  0x800100
    201c:	8f 91       	pop	r24
    201e:	0f 90       	pop	r0
    2020:	0f be       	out	0x3f, r0	; 63
    2022:	0f 90       	pop	r0
    2024:	1f 90       	pop	r1
    2026:	18 95       	reti
    2028:	ec e7       	ldi	r30, 0x7C	; 124
    202a:	f0 e0       	ldi	r31, 0x00	; 0
    202c:	80 81       	ld	r24, Z
    202e:	80 6c       	ori	r24, 0xC0	; 192
    2030:	80 83       	st	Z, r24
    2032:	ea e7       	ldi	r30, 0x7A	; 122
    2034:	f0 e0       	ldi	r31, 0x00	; 0
    2036:	80 81       	ld	r24, Z
    2038:	8f 68       	ori	r24, 0x8F	; 143
    203a:	80 83       	st	Z, r24
    203c:	08 95       	ret
    203e:	61 34       	cpi	r22, 0x41	; 65
    2040:	41 f1       	breq	.+80     	;  0x2092
    2042:	28 f4       	brcc	.+10     	;  0x204e
    2044:	68 32       	cpi	r22, 0x28	; 40
    2046:	59 f0       	breq	.+22     	;  0x205e
    2048:	60 34       	cpi	r22, 0x40	; 64
    204a:	c9 f0       	breq	.+50     	;  0x207e
    204c:	49 c0       	rjmp	.+146    	;  0x20e0
    204e:	6a 34       	cpi	r22, 0x4A	; 74
    2050:	a1 f1       	breq	.+104    	;  0x20ba
    2052:	6b 34       	cpi	r22, 0x4B	; 75
    2054:	e1 f1       	breq	.+120    	;  0x20ce
    2056:	69 34       	cpi	r22, 0x49	; 73
    2058:	09 f0       	breq	.+2      	;  0x205c
    205a:	42 c0       	rjmp	.+132    	;  0x20e0
    205c:	24 c0       	rjmp	.+72     	;  0x20a6
    205e:	87 b1       	in	r24, 0x07	; 7
    2060:	84 60       	ori	r24, 0x04	; 4
    2062:	87 b9       	out	0x07, r24	; 7
    2064:	87 b1       	in	r24, 0x07	; 7
    2066:	88 60       	ori	r24, 0x08	; 8
    2068:	87 b9       	out	0x07, r24	; 7
    206a:	8d b1       	in	r24, 0x0d	; 13
    206c:	88 60       	ori	r24, 0x08	; 8
    206e:	8d b9       	out	0x0d, r24	; 13
    2070:	87 b1       	in	r24, 0x07	; 7
    2072:	82 60       	ori	r24, 0x02	; 2
    2074:	87 b9       	out	0x07, r24	; 7
    2076:	87 b1       	in	r24, 0x07	; 7
    2078:	81 60       	ori	r24, 0x01	; 1
    207a:	87 b9       	out	0x07, r24	; 7
    207c:	31 c0       	rjmp	.+98     	;  0x20e0
    207e:	44 23       	and	r20, r20
    2080:	21 f0       	breq	.+8      	;  0x208a
    2082:	88 b1       	in	r24, 0x08	; 8
    2084:	84 60       	ori	r24, 0x04	; 4
    2086:	88 b9       	out	0x08, r24	; 8
    2088:	2b c0       	rjmp	.+86     	;  0x20e0
    208a:	88 b1       	in	r24, 0x08	; 8
    208c:	8b 7f       	andi	r24, 0xFB	; 251
    208e:	88 b9       	out	0x08, r24	; 8
    2090:	27 c0       	rjmp	.+78     	;  0x20e0
    2092:	44 23       	and	r20, r20
    2094:	21 f0       	breq	.+8      	;  0x209e
    2096:	88 b1       	in	r24, 0x08	; 8
    2098:	88 60       	ori	r24, 0x08	; 8
    209a:	88 b9       	out	0x08, r24	; 8
    209c:	21 c0       	rjmp	.+66     	;  0x20e0
    209e:	88 b1       	in	r24, 0x08	; 8
    20a0:	87 7f       	andi	r24, 0xF7	; 247
    20a2:	88 b9       	out	0x08, r24	; 8
    20a4:	1d c0       	rjmp	.+58     	;  0x20e0
    20a6:	44 23       	and	r20, r20
    20a8:	21 f0       	breq	.+8      	;  0x20b2
    20aa:	8e b1       	in	r24, 0x0e	; 14
    20ac:	88 60       	ori	r24, 0x08	; 8
    20ae:	8e b9       	out	0x0e, r24	; 14
    20b0:	17 c0       	rjmp	.+46     	;  0x20e0
    20b2:	8e b1       	in	r24, 0x0e	; 14
    20b4:	87 7f       	andi	r24, 0xF7	; 247
    20b6:	8e b9       	out	0x0e, r24	; 14
    20b8:	13 c0       	rjmp	.+38     	;  0x20e0
    20ba:	44 23       	and	r20, r20
    20bc:	21 f0       	breq	.+8      	;  0x20c6
    20be:	88 b1       	in	r24, 0x08	; 8
    20c0:	82 60       	ori	r24, 0x02	; 2
    20c2:	88 b9       	out	0x08, r24	; 8
    20c4:	0d c0       	rjmp	.+26     	;  0x20e0
    20c6:	88 b1       	in	r24, 0x08	; 8
    20c8:	8d 7f       	andi	r24, 0xFD	; 253
    20ca:	88 b9       	out	0x08, r24	; 8
    20cc:	09 c0       	rjmp	.+18     	;  0x20e0
    20ce:	44 23       	and	r20, r20
    20d0:	21 f0       	breq	.+8      	;  0x20da
    20d2:	88 b1       	in	r24, 0x08	; 8
    20d4:	81 60       	ori	r24, 0x01	; 1
    20d6:	88 b9       	out	0x08, r24	; 8
    20d8:	03 c0       	rjmp	.+6      	;  0x20e0
    20da:	88 b1       	in	r24, 0x08	; 8
    20dc:	8e 7f       	andi	r24, 0xFE	; 254
    20de:	88 b9       	out	0x08, r24	; 8
    20e0:	81 e0       	ldi	r24, 0x01	; 1
    20e2:	08 95       	ret
    20e4:	66 23       	and	r22, r22
    20e6:	99 f0       	breq	.+38     	;  0x210e
    20e8:	dc 01       	movw	r26, r24
    20ea:	ed 91       	ld	r30, X+
    20ec:	fc 91       	ld	r31, X
    20ee:	11 97       	sbiw	r26, 0x01	; 1
    20f0:	21 e0       	ldi	r18, 0x01	; 1
    20f2:	30 e0       	ldi	r19, 0x00	; 0
    20f4:	a9 01       	movw	r20, r18
    20f6:	12 96       	adiw	r26, 0x02	; 2
    20f8:	0c 90       	ld	r0, X
    20fa:	02 c0       	rjmp	.+4      	;  0x2100
    20fc:	44 0f       	add	r20, r20
    20fe:	55 1f       	adc	r21, r21
    2100:	0a 94       	dec	r0
    2102:	e2 f7       	brpl	.-8      	;  0x20fc
    2104:	ca 01       	movw	r24, r20
    2106:	90 81       	ld	r25, Z
    2108:	89 2b       	or	r24, r25
    210a:	80 83       	st	Z, r24
    210c:	08 95       	ret
    210e:	dc 01       	movw	r26, r24
    2110:	ed 91       	ld	r30, X+
    2112:	fc 91       	ld	r31, X
    2114:	11 97       	sbiw	r26, 0x01	; 1
    2116:	21 e0       	ldi	r18, 0x01	; 1
    2118:	30 e0       	ldi	r19, 0x00	; 0
    211a:	a9 01       	movw	r20, r18
    211c:	12 96       	adiw	r26, 0x02	; 2
    211e:	0c 90       	ld	r0, X
    2120:	02 c0       	rjmp	.+4      	;  0x2126
    2122:	44 0f       	add	r20, r20
    2124:	55 1f       	adc	r21, r21
    2126:	0a 94       	dec	r0
    2128:	e2 f7       	brpl	.-8      	;  0x2122
    212a:	ca 01       	movw	r24, r20
    212c:	80 95       	com	r24
    212e:	90 81       	ld	r25, Z
    2130:	89 23       	and	r24, r25
    2132:	80 83       	st	Z, r24
    2134:	08 95       	ret
    2136:	fc 01       	movw	r30, r24
    2138:	30 81       	ld	r19, Z
    213a:	21 81       	ldd	r18, Z+1	; 0x01
    213c:	61 30       	cpi	r22, 0x01	; 1
    213e:	99 f0       	breq	.+38     	;  0x2166
    2140:	18 f0       	brcs	.+6      	;  0x2148
    2142:	62 30       	cpi	r22, 0x02	; 2
    2144:	f1 f0       	breq	.+60     	;  0x2182
    2146:	08 95       	ret
    2148:	81 e0       	ldi	r24, 0x01	; 1
    214a:	90 e0       	ldi	r25, 0x00	; 0
    214c:	02 80       	ldd	r0, Z+2	; 0x02
    214e:	02 c0       	rjmp	.+4      	;  0x2154
    2150:	88 0f       	add	r24, r24
    2152:	99 1f       	adc	r25, r25
    2154:	0a 94       	dec	r0
    2156:	e2 f7       	brpl	.-8      	;  0x2150
    2158:	e3 2f       	mov	r30, r19
    215a:	f2 2f       	mov	r31, r18
    215c:	80 95       	com	r24
    215e:	92 91       	ld	r25, -Z
    2160:	89 23       	and	r24, r25
    2162:	80 83       	st	Z, r24
    2164:	08 95       	ret
    2166:	81 e0       	ldi	r24, 0x01	; 1
    2168:	90 e0       	ldi	r25, 0x00	; 0
    216a:	02 80       	ldd	r0, Z+2	; 0x02
    216c:	02 c0       	rjmp	.+4      	;  0x2172
    216e:	88 0f       	add	r24, r24
    2170:	99 1f       	adc	r25, r25
    2172:	0a 94       	dec	r0
    2174:	e2 f7       	brpl	.-8      	;  0x216e
    2176:	e3 2f       	mov	r30, r19
    2178:	f2 2f       	mov	r31, r18
    217a:	92 91       	ld	r25, -Z
    217c:	89 2b       	or	r24, r25
    217e:	80 83       	st	Z, r24
    2180:	08 95       	ret
    2182:	81 e0       	ldi	r24, 0x01	; 1
    2184:	90 e0       	ldi	r25, 0x00	; 0
    2186:	ac 01       	movw	r20, r24
    2188:	02 80       	ldd	r0, Z+2	; 0x02
    218a:	02 c0       	rjmp	.+4      	;  0x2190
    218c:	44 0f       	add	r20, r20
    218e:	55 1f       	adc	r21, r21
    2190:	0a 94       	dec	r0
    2192:	e2 f7       	brpl	.-8      	;  0x218c
    2194:	a3 2f       	mov	r26, r19
    2196:	b2 2f       	mov	r27, r18
    2198:	40 95       	com	r20
    219a:	2e 91       	ld	r18, -X
    219c:	42 23       	and	r20, r18
    219e:	4c 93       	st	X, r20
    21a0:	a0 81       	ld	r26, Z
    21a2:	b1 81       	ldd	r27, Z+1	; 0x01
    21a4:	02 80       	ldd	r0, Z+2	; 0x02
    21a6:	02 c0       	rjmp	.+4      	;  0x21ac
    21a8:	88 0f       	add	r24, r24
    21aa:	99 1f       	adc	r25, r25
    21ac:	0a 94       	dec	r0
    21ae:	e2 f7       	brpl	.-8      	;  0x21a8
    21b0:	80 95       	com	r24
    21b2:	9c 91       	ld	r25, X
    21b4:	89 23       	and	r24, r25
    21b6:	8c 93       	st	X, r24
    21b8:	08 95       	ret
    21ba:	80 91 b4 05 	lds	r24, 0x05B4	;  0x8005b4
    21be:	80 61       	ori	r24, 0x10	; 16
    21c0:	80 93 b4 05 	sts	0x05B4, r24	;  0x8005b4
    21c4:	80 91 b5 05 	lds	r24, 0x05B5	;  0x8005b5
    21c8:	81 61       	ori	r24, 0x11	; 17
    21ca:	80 93 b5 05 	sts	0x05B5, r24	;  0x8005b5
    21ce:	22 e0       	ldi	r18, 0x02	; 2
    21d0:	30 e0       	ldi	r19, 0x00	; 0
    21d2:	41 e0       	ldi	r20, 0x01	; 1
    21d4:	51 e0       	ldi	r21, 0x01	; 1
    21d6:	6b e0       	ldi	r22, 0x0B	; 11
    21d8:	82 e3       	ldi	r24, 0x32	; 50
    21da:	0e 94 65 12 	call	0x24ca	;  0x24ca
    21de:	21 e0       	ldi	r18, 0x01	; 1
    21e0:	30 e0       	ldi	r19, 0x00	; 0
    21e2:	45 eb       	ldi	r20, 0xB5	; 181
    21e4:	55 e0       	ldi	r21, 0x05	; 5
    21e6:	6d e0       	ldi	r22, 0x0D	; 13
    21e8:	82 e3       	ldi	r24, 0x32	; 50
    21ea:	0e 94 65 12 	call	0x24ca	;  0x24ca
    21ee:	21 e0       	ldi	r18, 0x01	; 1
    21f0:	30 e0       	ldi	r19, 0x00	; 0
    21f2:	44 eb       	ldi	r20, 0xB4	; 180
    21f4:	55 e0       	ldi	r21, 0x05	; 5
    21f6:	6f e0       	ldi	r22, 0x0F	; 15
    21f8:	82 e3       	ldi	r24, 0x32	; 50
    21fa:	0e 94 65 12 	call	0x24ca	;  0x24ca
    21fe:	08 95       	ret
    2200:	98 2f       	mov	r25, r24
    2202:	92 95       	swap	r25
    2204:	9f 70       	andi	r25, 0x0F	; 15
    2206:	99 0f       	add	r25, r25
    2208:	29 2f       	mov	r18, r25
    220a:	22 0f       	add	r18, r18
    220c:	22 0f       	add	r18, r18
    220e:	92 0f       	add	r25, r18
    2210:	8f 70       	andi	r24, 0x0F	; 15
    2212:	89 0f       	add	r24, r25
    2214:	08 95       	ret
    2216:	0f 93       	push	r16
    2218:	1f 93       	push	r17
    221a:	cf 93       	push	r28
    221c:	df 93       	push	r29
    221e:	cd b7       	in	r28, 0x3d	; 61
    2220:	de b7       	in	r29, 0x3e	; 62
    2222:	27 97       	sbiw	r28, 0x07	; 7
    2224:	0f b6       	in	r0, 0x3f	; 63
    2226:	f8 94       	cli
    2228:	de bf       	out	0x3e, r29	; 62
    222a:	0f be       	out	0x3f, r0	; 63
    222c:	cd bf       	out	0x3d, r28	; 61
    222e:	8c 01       	movw	r16, r24
    2230:	27 e0       	ldi	r18, 0x07	; 7
    2232:	30 e0       	ldi	r19, 0x00	; 0
    2234:	ae 01       	movw	r20, r28
    2236:	4f 5f       	subi	r20, 0xFF	; 255
    2238:	5f 4f       	sbci	r21, 0xFF	; 255
    223a:	60 e0       	ldi	r22, 0x00	; 0
    223c:	82 e3       	ldi	r24, 0x32	; 50
    223e:	0e 94 ea 11 	call	0x23d4	;  0x23d4
    2242:	89 81       	ldd	r24, Y+1	; 0x01
    2244:	0e 94 00 11 	call	0x2200	;  0x2200
    2248:	f8 01       	movw	r30, r16
    224a:	80 83       	st	Z, r24
    224c:	8a 81       	ldd	r24, Y+2	; 0x02
    224e:	0e 94 00 11 	call	0x2200	;  0x2200
    2252:	f8 01       	movw	r30, r16
    2254:	81 83       	std	Z+1, r24	; 0x01
    2256:	8b 81       	ldd	r24, Y+3	; 0x03
    2258:	0e 94 00 11 	call	0x2200	;  0x2200
    225c:	f8 01       	movw	r30, r16
    225e:	82 83       	std	Z+2, r24	; 0x02
    2260:	8c 81       	ldd	r24, Y+4	; 0x04
    2262:	87 83       	std	Z+7, r24	; 0x07
    2264:	8d 81       	ldd	r24, Y+5	; 0x05
    2266:	0e 94 00 11 	call	0x2200	;  0x2200
    226a:	f8 01       	movw	r30, r16
    226c:	83 83       	std	Z+3, r24	; 0x03
    226e:	8e 81       	ldd	r24, Y+6	; 0x06
    2270:	0e 94 00 11 	call	0x2200	;  0x2200
    2274:	f8 01       	movw	r30, r16
    2276:	84 83       	std	Z+4, r24	; 0x04
    2278:	8f 81       	ldd	r24, Y+7	; 0x07
    227a:	0e 94 00 11 	call	0x2200	;  0x2200
    227e:	90 e0       	ldi	r25, 0x00	; 0
    2280:	f8 01       	movw	r30, r16
    2282:	96 83       	std	Z+6, r25	; 0x06
    2284:	85 83       	std	Z+5, r24	; 0x05
    2286:	27 96       	adiw	r28, 0x07	; 7
    2288:	0f b6       	in	r0, 0x3f	; 63
    228a:	f8 94       	cli
    228c:	de bf       	out	0x3e, r29	; 62
    228e:	0f be       	out	0x3f, r0	; 63
    2290:	cd bf       	out	0x3d, r28	; 61
    2292:	df 91       	pop	r29
    2294:	cf 91       	pop	r28
    2296:	1f 91       	pop	r17
    2298:	0f 91       	pop	r16
    229a:	08 95       	ret
    229c:	85 ea       	ldi	r24, 0xA5	; 165
    229e:	80 93 dc 00 	sts	0x00DC, r24	;  0x8000dc
    22a2:	80 e0       	ldi	r24, 0x00	; 0
    22a4:	90 e0       	ldi	r25, 0x00	; 0
    22a6:	05 c0       	rjmp	.+10     	;  0x22b2
    22a8:	01 96       	adiw	r24, 0x01	; 1
    22aa:	80 34       	cpi	r24, 0x40	; 64
    22ac:	26 e0       	ldi	r18, 0x06	; 6
    22ae:	92 07       	cpc	r25, r18
    22b0:	30 f4       	brcc	.+12     	;  0x22be
    22b2:	20 91 03 01 	lds	r18, 0x0103	;  0x800103
    22b6:	28 30       	cpi	r18, 0x08	; 8
    22b8:	b9 f7       	brne	.-18     	;  0x22a8
    22ba:	80 e0       	ldi	r24, 0x00	; 0
    22bc:	08 95       	ret
    22be:	81 e0       	ldi	r24, 0x01	; 1
    22c0:	08 95       	ret
    22c2:	85 e9       	ldi	r24, 0x95	; 149
    22c4:	80 93 dc 00 	sts	0x00DC, r24	;  0x8000dc
    22c8:	08 95       	ret
    22ca:	85 ea       	ldi	r24, 0xA5	; 165
    22cc:	80 93 dc 00 	sts	0x00DC, r24	;  0x8000dc
    22d0:	80 e0       	ldi	r24, 0x00	; 0
    22d2:	90 e0       	ldi	r25, 0x00	; 0
    22d4:	05 c0       	rjmp	.+10     	;  0x22e0
    22d6:	01 96       	adiw	r24, 0x01	; 1
    22d8:	80 34       	cpi	r24, 0x40	; 64
    22da:	26 e0       	ldi	r18, 0x06	; 6
    22dc:	92 07       	cpc	r25, r18
    22de:	30 f4       	brcc	.+12     	;  0x22ec
    22e0:	20 91 03 01 	lds	r18, 0x0103	;  0x800103
    22e4:	20 31       	cpi	r18, 0x10	; 16
    22e6:	b9 f7       	brne	.-18     	;  0x22d6
    22e8:	80 e0       	ldi	r24, 0x00	; 0
    22ea:	08 95       	ret
    22ec:	81 e0       	ldi	r24, 0x01	; 1
    22ee:	08 95       	ret
    22f0:	85 e8       	ldi	r24, 0x85	; 133
    22f2:	80 93 dc 00 	sts	0x00DC, r24	;  0x8000dc
    22f6:	80 e0       	ldi	r24, 0x00	; 0
    22f8:	90 e0       	ldi	r25, 0x00	; 0
    22fa:	05 c0       	rjmp	.+10     	;  0x2306
    22fc:	01 96       	adiw	r24, 0x01	; 1
    22fe:	80 34       	cpi	r24, 0x40	; 64
    2300:	26 e0       	ldi	r18, 0x06	; 6
    2302:	92 07       	cpc	r25, r18
    2304:	30 f4       	brcc	.+12     	;  0x2312
    2306:	20 91 03 01 	lds	r18, 0x0103	;  0x800103
    230a:	28 31       	cpi	r18, 0x18	; 24
    230c:	b9 f7       	brne	.-18     	;  0x22fc
    230e:	80 e0       	ldi	r24, 0x00	; 0
    2310:	08 95       	ret
    2312:	81 e0       	ldi	r24, 0x01	; 1
    2314:	08 95       	ret
    2316:	85 e8       	ldi	r24, 0x85	; 133
    2318:	80 93 dc 00 	sts	0x00DC, r24	;  0x8000dc
    231c:	80 e0       	ldi	r24, 0x00	; 0
    231e:	90 e0       	ldi	r25, 0x00	; 0
    2320:	05 c0       	rjmp	.+10     	;  0x232c
    2322:	01 96       	adiw	r24, 0x01	; 1
    2324:	80 34       	cpi	r24, 0x40	; 64
    2326:	26 e0       	ldi	r18, 0x06	; 6
    2328:	92 07       	cpc	r25, r18
    232a:	30 f4       	brcc	.+12     	;  0x2338
    232c:	20 91 03 01 	lds	r18, 0x0103	;  0x800103
    2330:	28 32       	cpi	r18, 0x28	; 40
    2332:	b9 f7       	brne	.-18     	;  0x2322
    2334:	80 e0       	ldi	r24, 0x00	; 0
    2336:	08 95       	ret
    2338:	81 e0       	ldi	r24, 0x01	; 1
    233a:	08 95       	ret
    233c:	85 e8       	ldi	r24, 0x85	; 133
    233e:	80 93 dc 00 	sts	0x00DC, r24	;  0x8000dc
    2342:	80 e0       	ldi	r24, 0x00	; 0
    2344:	90 e0       	ldi	r25, 0x00	; 0
    2346:	05 c0       	rjmp	.+10     	;  0x2352
    2348:	01 96       	adiw	r24, 0x01	; 1
    234a:	80 34       	cpi	r24, 0x40	; 64
    234c:	26 e0       	ldi	r18, 0x06	; 6
    234e:	92 07       	cpc	r25, r18
    2350:	30 f4       	brcc	.+12     	;  0x235e
    2352:	20 91 03 01 	lds	r18, 0x0103	;  0x800103
    2356:	20 34       	cpi	r18, 0x40	; 64
    2358:	b9 f7       	brne	.-18     	;  0x2348
    235a:	80 e0       	ldi	r24, 0x00	; 0
    235c:	08 95       	ret
    235e:	81 e0       	ldi	r24, 0x01	; 1
    2360:	08 95       	ret
    2362:	88 23       	and	r24, r24
    2364:	89 f0       	breq	.+34     	;  0x2388
    2366:	85 ec       	ldi	r24, 0xC5	; 197
    2368:	80 93 dc 00 	sts	0x00DC, r24	;  0x8000dc
    236c:	80 e0       	ldi	r24, 0x00	; 0
    236e:	90 e0       	ldi	r25, 0x00	; 0
    2370:	05 c0       	rjmp	.+10     	;  0x237c
    2372:	01 96       	adiw	r24, 0x01	; 1
    2374:	80 34       	cpi	r24, 0x40	; 64
    2376:	26 e0       	ldi	r18, 0x06	; 6
    2378:	92 07       	cpc	r25, r18
    237a:	b8 f4       	brcc	.+46     	;  0x23aa
    237c:	20 91 03 01 	lds	r18, 0x0103	;  0x800103
    2380:	20 35       	cpi	r18, 0x50	; 80
    2382:	b9 f7       	brne	.-18     	;  0x2372
    2384:	80 e0       	ldi	r24, 0x00	; 0
    2386:	08 95       	ret
    2388:	85 e8       	ldi	r24, 0x85	; 133
    238a:	80 93 dc 00 	sts	0x00DC, r24	;  0x8000dc
    238e:	80 e0       	ldi	r24, 0x00	; 0
    2390:	90 e0       	ldi	r25, 0x00	; 0
    2392:	05 c0       	rjmp	.+10     	;  0x239e
    2394:	01 96       	adiw	r24, 0x01	; 1
    2396:	80 34       	cpi	r24, 0x40	; 64
    2398:	26 e0       	ldi	r18, 0x06	; 6
    239a:	92 07       	cpc	r25, r18
    239c:	40 f4       	brcc	.+16     	;  0x23ae
    239e:	20 91 03 01 	lds	r18, 0x0103	;  0x800103
    23a2:	28 35       	cpi	r18, 0x58	; 88
    23a4:	b9 f7       	brne	.-18     	;  0x2394
    23a6:	80 e0       	ldi	r24, 0x00	; 0
    23a8:	08 95       	ret
    23aa:	81 e0       	ldi	r24, 0x01	; 1
    23ac:	08 95       	ret
    23ae:	81 e0       	ldi	r24, 0x01	; 1
    23b0:	08 95       	ret
    23b2:	1f 92       	push	r1
    23b4:	0f 92       	push	r0
    23b6:	0f b6       	in	r0, 0x3f	; 63
    23b8:	0f 92       	push	r0
    23ba:	11 24       	eor	r1, r1
    23bc:	8f 93       	push	r24
    23be:	80 91 d9 00 	lds	r24, 0x00D9	;  0x8000d9
    23c2:	88 7f       	andi	r24, 0xF8	; 248
    23c4:	80 93 03 01 	sts	0x0103, r24	;  0x800103
    23c8:	8f 91       	pop	r24
    23ca:	0f 90       	pop	r0
    23cc:	0f be       	out	0x3f, r0	; 63
    23ce:	0f 90       	pop	r0
    23d0:	1f 90       	pop	r1
    23d2:	18 95       	reti
    23d4:	cf 92       	push	r12
    23d6:	df 92       	push	r13
    23d8:	ef 92       	push	r14
    23da:	ff 92       	push	r15
    23dc:	0f 93       	push	r16
    23de:	1f 93       	push	r17
    23e0:	cf 93       	push	r28
    23e2:	d8 2e       	mov	r13, r24
    23e4:	c6 2e       	mov	r12, r22
    23e6:	7a 01       	movw	r14, r20
    23e8:	89 01       	movw	r16, r18
    23ea:	0e 94 4e 11 	call	0x229c	;  0x229c
    23ee:	c8 2f       	mov	r28, r24
    23f0:	88 23       	and	r24, r24
    23f2:	21 f0       	breq	.+8      	;  0x23fc
    23f4:	0e 94 61 11 	call	0x22c2	;  0x22c2
    23f8:	8c 2f       	mov	r24, r28
    23fa:	5f c0       	rjmp	.+190    	;  0x24ba
    23fc:	8d 2d       	mov	r24, r13
    23fe:	88 0f       	add	r24, r24
    2400:	80 93 db 00 	sts	0x00DB, r24	;  0x8000db
    2404:	0e 94 78 11 	call	0x22f0	;  0x22f0
    2408:	c8 2f       	mov	r28, r24
    240a:	88 23       	and	r24, r24
    240c:	21 f0       	breq	.+8      	;  0x2416
    240e:	0e 94 61 11 	call	0x22c2	;  0x22c2
    2412:	8c 2f       	mov	r24, r28
    2414:	52 c0       	rjmp	.+164    	;  0x24ba
    2416:	c0 92 db 00 	sts	0x00DB, r12	;  0x8000db
    241a:	0e 94 8b 11 	call	0x2316	;  0x2316
    241e:	c8 2f       	mov	r28, r24
    2420:	88 23       	and	r24, r24
    2422:	21 f0       	breq	.+8      	;  0x242c
    2424:	0e 94 61 11 	call	0x22c2	;  0x22c2
    2428:	8c 2f       	mov	r24, r28
    242a:	47 c0       	rjmp	.+142    	;  0x24ba
    242c:	0e 94 65 11 	call	0x22ca	;  0x22ca
    2430:	c8 2f       	mov	r28, r24
    2432:	88 23       	and	r24, r24
    2434:	21 f0       	breq	.+8      	;  0x243e
    2436:	0e 94 61 11 	call	0x22c2	;  0x22c2
    243a:	8c 2f       	mov	r24, r28
    243c:	3e c0       	rjmp	.+124    	;  0x24ba
    243e:	8d 2d       	mov	r24, r13
    2440:	90 e0       	ldi	r25, 0x00	; 0
    2442:	88 0f       	add	r24, r24
    2444:	99 1f       	adc	r25, r25
    2446:	81 60       	ori	r24, 0x01	; 1
    2448:	80 93 db 00 	sts	0x00DB, r24	;  0x8000db
    244c:	0e 94 9e 11 	call	0x233c	;  0x233c
    2450:	c8 2f       	mov	r28, r24
    2452:	88 23       	and	r24, r24
    2454:	c1 f0       	breq	.+48     	;  0x2486
    2456:	0e 94 61 11 	call	0x22c2	;  0x22c2
    245a:	8c 2f       	mov	r24, r28
    245c:	2e c0       	rjmp	.+92     	;  0x24ba
    245e:	81 e0       	ldi	r24, 0x01	; 1
    2460:	0e 94 b1 11 	call	0x2362	;  0x2362
    2464:	c8 2f       	mov	r28, r24
    2466:	88 23       	and	r24, r24
    2468:	21 f0       	breq	.+8      	;  0x2472
    246a:	0e 94 61 11 	call	0x22c2	;  0x22c2
    246e:	8c 2f       	mov	r24, r28
    2470:	24 c0       	rjmp	.+72     	;  0x24ba
    2472:	f7 01       	movw	r30, r14
    2474:	ec 0d       	add	r30, r12
    2476:	fd 1d       	adc	r31, r13
    2478:	80 91 db 00 	lds	r24, 0x00DB	;  0x8000db
    247c:	80 83       	st	Z, r24
    247e:	8f ef       	ldi	r24, 0xFF	; 255
    2480:	c8 1a       	sub	r12, r24
    2482:	d8 0a       	sbc	r13, r24
    2484:	02 c0       	rjmp	.+4      	;  0x248a
    2486:	c1 2c       	mov	r12, r1
    2488:	d1 2c       	mov	r13, r1
    248a:	c8 01       	movw	r24, r16
    248c:	01 97       	sbiw	r24, 0x01	; 1
    248e:	c8 16       	cp	r12, r24
    2490:	d9 06       	cpc	r13, r25
    2492:	28 f3       	brcs	.-54     	;  0x245e
    2494:	80 e0       	ldi	r24, 0x00	; 0
    2496:	0e 94 b1 11 	call	0x2362	;  0x2362
    249a:	c8 2f       	mov	r28, r24
    249c:	88 23       	and	r24, r24
    249e:	21 f0       	breq	.+8      	;  0x24a8
    24a0:	0e 94 61 11 	call	0x22c2	;  0x22c2
    24a4:	8c 2f       	mov	r24, r28
    24a6:	09 c0       	rjmp	.+18     	;  0x24ba
    24a8:	f7 01       	movw	r30, r14
    24aa:	ec 0d       	add	r30, r12
    24ac:	fd 1d       	adc	r31, r13
    24ae:	80 91 db 00 	lds	r24, 0x00DB	;  0x8000db
    24b2:	80 83       	st	Z, r24
    24b4:	0e 94 61 11 	call	0x22c2	;  0x22c2
    24b8:	8c 2f       	mov	r24, r28
    24ba:	cf 91       	pop	r28
    24bc:	1f 91       	pop	r17
    24be:	0f 91       	pop	r16
    24c0:	ff 90       	pop	r15
    24c2:	ef 90       	pop	r14
    24c4:	df 90       	pop	r13
    24c6:	cf 90       	pop	r12
    24c8:	08 95       	ret
    24ca:	cf 92       	push	r12
    24cc:	df 92       	push	r13
    24ce:	ef 92       	push	r14
    24d0:	ff 92       	push	r15
    24d2:	0f 93       	push	r16
    24d4:	1f 93       	push	r17
    24d6:	cf 93       	push	r28
    24d8:	18 2f       	mov	r17, r24
    24da:	06 2f       	mov	r16, r22
    24dc:	6a 01       	movw	r12, r20
    24de:	79 01       	movw	r14, r18
    24e0:	0e 94 4e 11 	call	0x229c	;  0x229c
    24e4:	c8 2f       	mov	r28, r24
    24e6:	88 23       	and	r24, r24
    24e8:	21 f0       	breq	.+8      	;  0x24f2
    24ea:	0e 94 61 11 	call	0x22c2	;  0x22c2
    24ee:	8c 2f       	mov	r24, r28
    24f0:	31 c0       	rjmp	.+98     	;  0x2554
    24f2:	11 0f       	add	r17, r17
    24f4:	10 93 db 00 	sts	0x00DB, r17	;  0x8000db
    24f8:	0e 94 78 11 	call	0x22f0	;  0x22f0
    24fc:	c8 2f       	mov	r28, r24
    24fe:	88 23       	and	r24, r24
    2500:	21 f0       	breq	.+8      	;  0x250a
    2502:	0e 94 61 11 	call	0x22c2	;  0x22c2
    2506:	8c 2f       	mov	r24, r28
    2508:	25 c0       	rjmp	.+74     	;  0x2554
    250a:	00 93 db 00 	sts	0x00DB, r16	;  0x8000db
    250e:	0e 94 8b 11 	call	0x2316	;  0x2316
    2512:	c8 2f       	mov	r28, r24
    2514:	88 23       	and	r24, r24
    2516:	b1 f0       	breq	.+44     	;  0x2544
    2518:	0e 94 61 11 	call	0x22c2	;  0x22c2
    251c:	8c 2f       	mov	r24, r28
    251e:	1a c0       	rjmp	.+52     	;  0x2554
    2520:	f6 01       	movw	r30, r12
    2522:	e0 0f       	add	r30, r16
    2524:	f1 1f       	adc	r31, r17
    2526:	80 81       	ld	r24, Z
    2528:	80 93 db 00 	sts	0x00DB, r24	;  0x8000db
    252c:	0e 94 8b 11 	call	0x2316	;  0x2316
    2530:	c8 2f       	mov	r28, r24
    2532:	88 23       	and	r24, r24
    2534:	21 f0       	breq	.+8      	;  0x253e
    2536:	0e 94 61 11 	call	0x22c2	;  0x22c2
    253a:	8c 2f       	mov	r24, r28
    253c:	0b c0       	rjmp	.+22     	;  0x2554
    253e:	0f 5f       	subi	r16, 0xFF	; 255
    2540:	1f 4f       	sbci	r17, 0xFF	; 255
    2542:	02 c0       	rjmp	.+4      	;  0x2548
    2544:	00 e0       	ldi	r16, 0x00	; 0
    2546:	10 e0       	ldi	r17, 0x00	; 0
    2548:	0e 15       	cp	r16, r14
    254a:	1f 05       	cpc	r17, r15
    254c:	48 f3       	brcs	.-46     	;  0x2520
    254e:	0e 94 61 11 	call	0x22c2	;  0x22c2
    2552:	8c 2f       	mov	r24, r28
    2554:	cf 91       	pop	r28
    2556:	1f 91       	pop	r17
    2558:	0f 91       	pop	r16
    255a:	ff 90       	pop	r15
    255c:	ef 90       	pop	r14
    255e:	df 90       	pop	r13
    2560:	cf 90       	pop	r12
    2562:	08 95       	ret
    2564:	9b 01       	movw	r18, r22
    2566:	ac 01       	movw	r20, r24
    2568:	60 e0       	ldi	r22, 0x00	; 0
    256a:	74 e2       	ldi	r23, 0x24	; 36
    256c:	84 ef       	ldi	r24, 0xF4	; 244
    256e:	90 e0       	ldi	r25, 0x00	; 0
    2570:	0e 94 df 17 	call	0x2fbe	;  0x2fbe
    2574:	da 01       	movw	r26, r20
    2576:	c9 01       	movw	r24, r18
    2578:	40 97       	sbiw	r24, 0x10	; 16
    257a:	a1 09       	sbc	r26, r1
    257c:	b1 09       	sbc	r27, r1
    257e:	b6 95       	lsr	r27
    2580:	a7 95       	ror	r26
    2582:	97 95       	ror	r25
    2584:	87 95       	ror	r24
    2586:	80 93 d8 00 	sts	0x00D8, r24	;  0x8000d8
    258a:	85 e0       	ldi	r24, 0x05	; 5
    258c:	80 93 dc 00 	sts	0x00DC, r24	;  0x8000dc
    2590:	08 95       	ret
    2592:	1f 92       	push	r1
    2594:	0f 92       	push	r0
    2596:	0f b6       	in	r0, 0x3f	; 63
    2598:	0f 92       	push	r0
    259a:	11 24       	eor	r1, r1
    259c:	8f 93       	push	r24
    259e:	9f 93       	push	r25
    25a0:	ef 93       	push	r30
    25a2:	ff 93       	push	r31
    25a4:	e0 91 36 06 	lds	r30, 0x0636	;  0x800636
    25a8:	f0 91 37 06 	lds	r31, 0x0637	;  0x800637
    25ac:	80 91 c6 00 	lds	r24, 0x00C6	;  0x8000c6
    25b0:	ea 54       	subi	r30, 0x4A	; 74
    25b2:	fa 4f       	sbci	r31, 0xFA	; 250
    25b4:	80 83       	st	Z, r24
    25b6:	e0 91 36 06 	lds	r30, 0x0636	;  0x800636
    25ba:	f0 91 37 06 	lds	r31, 0x0637	;  0x800637
    25be:	ea 54       	subi	r30, 0x4A	; 74
    25c0:	fa 4f       	sbci	r31, 0xFA	; 250
    25c2:	80 81       	ld	r24, Z
    25c4:	8d 30       	cpi	r24, 0x0D	; 13
    25c6:	51 f4       	brne	.+20     	;  0x25dc
    25c8:	81 e0       	ldi	r24, 0x01	; 1
    25ca:	80 93 04 01 	sts	0x0104, r24	;  0x800104
    25ce:	e0 91 36 06 	lds	r30, 0x0636	;  0x800636
    25d2:	f0 91 37 06 	lds	r31, 0x0637	;  0x800637
    25d6:	e9 54       	subi	r30, 0x49	; 73
    25d8:	fa 4f       	sbci	r31, 0xFA	; 250
    25da:	10 82       	st	Z, r1
    25dc:	80 91 36 06 	lds	r24, 0x0636	;  0x800636
    25e0:	90 91 37 06 	lds	r25, 0x0637	;  0x800637
    25e4:	01 96       	adiw	r24, 0x01	; 1
    25e6:	90 93 37 06 	sts	0x0637, r25	;  0x800637
    25ea:	80 93 36 06 	sts	0x0636, r24	;  0x800636
    25ee:	ff 91       	pop	r31
    25f0:	ef 91       	pop	r30
    25f2:	9f 91       	pop	r25
    25f4:	8f 91       	pop	r24
    25f6:	0f 90       	pop	r0
    25f8:	0f be       	out	0x3f, r0	; 63
    25fa:	0f 90       	pop	r0
    25fc:	1f 90       	pop	r1
    25fe:	18 95       	reti
    2600:	1f 92       	push	r1
    2602:	0f 92       	push	r0
    2604:	0f b6       	in	r0, 0x3f	; 63
    2606:	0f 92       	push	r0
    2608:	11 24       	eor	r1, r1
    260a:	8f 93       	push	r24
    260c:	81 e0       	ldi	r24, 0x01	; 1
    260e:	80 93 05 01 	sts	0x0105, r24	;  0x800105
    2612:	8f 91       	pop	r24
    2614:	0f 90       	pop	r0
    2616:	0f be       	out	0x3f, r0	; 63
    2618:	0f 90       	pop	r0
    261a:	1f 90       	pop	r1
    261c:	18 95       	reti
    261e:	44 23       	and	r20, r20
    2620:	39 f0       	breq	.+14     	;  0x2630
    2622:	e0 ec       	ldi	r30, 0xC0	; 192
    2624:	f0 e0       	ldi	r31, 0x00	; 0
    2626:	20 81       	ld	r18, Z
    2628:	22 60       	ori	r18, 0x02	; 2
    262a:	20 83       	st	Z, r18
    262c:	a8 e0       	ldi	r26, 0x08	; 8
    262e:	01 c0       	rjmp	.+2      	;  0x2632
    2630:	a0 e1       	ldi	r26, 0x10	; 16
    2632:	b0 e0       	ldi	r27, 0x00	; 0
    2634:	9b 01       	movw	r18, r22
    2636:	ac 01       	movw	r20, r24
    2638:	0e 94 10 18 	call	0x3020	;  0x3020
    263c:	9b 01       	movw	r18, r22
    263e:	ac 01       	movw	r20, r24
    2640:	60 e0       	ldi	r22, 0x00	; 0
    2642:	74 e2       	ldi	r23, 0x24	; 36
    2644:	84 ef       	ldi	r24, 0xF4	; 244
    2646:	90 e0       	ldi	r25, 0x00	; 0
    2648:	0e 94 df 17 	call	0x2fbe	;  0x2fbe
    264c:	ba 01       	movw	r22, r20
    264e:	a9 01       	movw	r20, r18
    2650:	41 50       	subi	r20, 0x01	; 1
    2652:	51 09       	sbc	r21, r1
    2654:	61 09       	sbc	r22, r1
    2656:	71 09       	sbc	r23, r1
    2658:	db 01       	movw	r26, r22
    265a:	ca 01       	movw	r24, r20
    265c:	88 27       	eor	r24, r24
    265e:	9f 70       	andi	r25, 0x0F	; 15
    2660:	aa 27       	eor	r26, r26
    2662:	bb 27       	eor	r27, r27
    2664:	89 2f       	mov	r24, r25
    2666:	9a 2f       	mov	r25, r26
    2668:	ab 2f       	mov	r26, r27
    266a:	bb 27       	eor	r27, r27
    266c:	80 93 c5 00 	sts	0x00C5, r24	;  0x8000c5
    2670:	40 93 c4 00 	sts	0x00C4, r20	;  0x8000c4
    2674:	e1 ec       	ldi	r30, 0xC1	; 193
    2676:	f0 e0       	ldi	r31, 0x00	; 0
    2678:	80 81       	ld	r24, Z
    267a:	88 6d       	ori	r24, 0xD8	; 216
    267c:	80 83       	st	Z, r24
    267e:	86 e8       	ldi	r24, 0x86	; 134
    2680:	80 93 c2 00 	sts	0x00C2, r24	;  0x8000c2
    2684:	08 95       	ret
    2686:	90 91 05 01 	lds	r25, 0x0105	;  0x800105
    268a:	99 23       	and	r25, r25
    268c:	e1 f3       	breq	.-8      	;  0x2686
    268e:	10 92 05 01 	sts	0x0105, r1	;  0x800105
    2692:	80 93 c6 00 	sts	0x00C6, r24	;  0x8000c6
    2696:	08 95       	ret
    2698:	1f 92       	push	r1
    269a:	0f 92       	push	r0
    269c:	0f b6       	in	r0, 0x3f	; 63
    269e:	0f 92       	push	r0
    26a0:	11 24       	eor	r1, r1
    26a2:	8f 93       	push	r24
    26a4:	81 e0       	ldi	r24, 0x01	; 1
    26a6:	80 93 38 06 	sts	0x0638, r24	;  0x800638
    26aa:	8f 91       	pop	r24
    26ac:	0f 90       	pop	r0
    26ae:	0f be       	out	0x3f, r0	; 63
    26b0:	0f 90       	pop	r0
    26b2:	1f 90       	pop	r1
    26b4:	18 95       	reti
    26b6:	cf 93       	push	r28
    26b8:	df 93       	push	r29
    26ba:	cd b7       	in	r28, 0x3d	; 61
    26bc:	de b7       	in	r29, 0x3e	; 62
    26be:	2a 97       	sbiw	r28, 0x0a	; 10
    26c0:	0f b6       	in	r0, 0x3f	; 63
    26c2:	f8 94       	cli
    26c4:	de bf       	out	0x3e, r29	; 62
    26c6:	0f be       	out	0x3f, r0	; 63
    26c8:	cd bf       	out	0x3d, r28	; 61
    26ca:	78 94       	sei
    26cc:	e9 e6       	ldi	r30, 0x69	; 105
    26ce:	f0 e0       	ldi	r31, 0x00	; 0
    26d0:	80 81       	ld	r24, Z
    26d2:	82 60       	ori	r24, 0x02	; 2
    26d4:	80 83       	st	Z, r24
    26d6:	81 e0       	ldi	r24, 0x01	; 1
    26d8:	8d bb       	out	0x1d, r24	; 29
    26da:	86 e0       	ldi	r24, 0x06	; 6
    26dc:	91 e0       	ldi	r25, 0x01	; 1
    26de:	90 93 b2 06 	sts	0x06B2, r25	;  0x8006b2
    26e2:	80 93 b1 06 	sts	0x06B1, r24	;  0x8006b1
    26e6:	89 e0       	ldi	r24, 0x09	; 9
    26e8:	e2 e2       	ldi	r30, 0x22	; 34
    26ea:	f1 e0       	ldi	r31, 0x01	; 1
    26ec:	de 01       	movw	r26, r28
    26ee:	11 96       	adiw	r26, 0x01	; 1
    26f0:	01 90       	ld	r0, Z+
    26f2:	0d 92       	st	X+, r0
    26f4:	8a 95       	dec	r24
    26f6:	e1 f7       	brne	.-8      	;  0x26f0
    26f8:	1a 86       	std	Y+10, r1	; 0x0a
    26fa:	2f e1       	ldi	r18, 0x1F	; 31
    26fc:	30 e1       	ldi	r19, 0x10	; 16
    26fe:	4c ef       	ldi	r20, 0xFC	; 252
    2700:	5c e0       	ldi	r21, 0x0C	; 12
    2702:	6c e2       	ldi	r22, 0x2C	; 44
    2704:	71 e0       	ldi	r23, 0x01	; 1
    2706:	89 e3       	ldi	r24, 0x39	; 57
    2708:	96 e0       	ldi	r25, 0x06	; 6
    270a:	0e 94 d5 05 	call	0xbaa	;  0xbaa
    270e:	40 e0       	ldi	r20, 0x00	; 0
    2710:	60 e9       	ldi	r22, 0x90	; 144
    2712:	70 ed       	ldi	r23, 0xD0	; 208
    2714:	83 e0       	ldi	r24, 0x03	; 3
    2716:	90 e0       	ldi	r25, 0x00	; 0
    2718:	0e 94 0f 13 	call	0x261e	;  0x261e
    271c:	60 e8       	ldi	r22, 0x80	; 128
    271e:	7a e1       	ldi	r23, 0x1A	; 26
    2720:	86 e0       	ldi	r24, 0x06	; 6
    2722:	90 e0       	ldi	r25, 0x00	; 0
    2724:	0e 94 b2 12 	call	0x2564	;  0x2564
    2728:	0e 94 14 10 	call	0x2028	;  0x2028
    272c:	60 e0       	ldi	r22, 0x00	; 0
    272e:	70 e0       	ldi	r23, 0x00	; 0
    2730:	84 e1       	ldi	r24, 0x14	; 20
    2732:	91 e0       	ldi	r25, 0x01	; 1
    2734:	0e 94 dd 10 	call	0x21ba	;  0x21ba
    2738:	0e 94 14 10 	call	0x2028	;  0x2028
    273c:	89 e3       	ldi	r24, 0x39	; 57
    273e:	96 e0       	ldi	r25, 0x06	; 6
    2740:	0e 94 cd 0e 	call	0x1d9a	;  0x1d9a
    2744:	60 e0       	ldi	r22, 0x00	; 0
    2746:	89 e3       	ldi	r24, 0x39	; 57
    2748:	96 e0       	ldi	r25, 0x06	; 6
    274a:	0e 94 d8 0e 	call	0x1db0	;  0x1db0
    274e:	61 e0       	ldi	r22, 0x01	; 1
    2750:	89 e3       	ldi	r24, 0x39	; 57
    2752:	96 e0       	ldi	r25, 0x06	; 6
    2754:	0e 94 e3 0e 	call	0x1dc6	;  0x1dc6
    2758:	64 e6       	ldi	r22, 0x64	; 100
    275a:	89 e3       	ldi	r24, 0x39	; 57
    275c:	96 e0       	ldi	r25, 0x06	; 6
    275e:	0e 94 ee 0e 	call	0x1ddc	;  0x1ddc
    2762:	61 e0       	ldi	r22, 0x01	; 1
    2764:	8c e1       	ldi	r24, 0x1C	; 28
    2766:	91 e0       	ldi	r25, 0x01	; 1
    2768:	0e 94 9b 10 	call	0x2136	;  0x2136
    276c:	61 e0       	ldi	r22, 0x01	; 1
    276e:	8c e1       	ldi	r24, 0x1C	; 28
    2770:	91 e0       	ldi	r25, 0x01	; 1
    2772:	0e 94 72 10 	call	0x20e4	;  0x20e4
    2776:	60 e0       	ldi	r22, 0x00	; 0
    2778:	8f e1       	ldi	r24, 0x1F	; 31
    277a:	91 e0       	ldi	r25, 0x01	; 1
    277c:	0e 94 9b 10 	call	0x2136	;  0x2136
    2780:	89 e3       	ldi	r24, 0x39	; 57
    2782:	96 e0       	ldi	r25, 0x06	; 6
    2784:	0e 94 9a 04 	call	0x934	;  0x934
    2788:	68 e7       	ldi	r22, 0x78	; 120
    278a:	73 e0       	ldi	r23, 0x03	; 3
    278c:	89 e3       	ldi	r24, 0x39	; 57
    278e:	96 e0       	ldi	r25, 0x06	; 6
    2790:	0e 94 f9 09 	call	0x13f2	;  0x13f2
    2794:	0f 2e       	mov	r0, r31
    2796:	f3 e0       	ldi	r31, 0x03	; 3
    2798:	ef 2e       	mov	r14, r31
    279a:	f1 2c       	mov	r15, r1
    279c:	f0 2d       	mov	r31, r0
    279e:	0a e1       	ldi	r16, 0x1A	; 26
    27a0:	10 e0       	ldi	r17, 0x00	; 0
    27a2:	2a e4       	ldi	r18, 0x4A	; 74
    27a4:	30 e0       	ldi	r19, 0x00	; 0
    27a6:	46 e2       	ldi	r20, 0x26	; 38
    27a8:	50 e0       	ldi	r21, 0x00	; 0
    27aa:	60 e0       	ldi	r22, 0x00	; 0
    27ac:	70 e0       	ldi	r23, 0x00	; 0
    27ae:	89 e3       	ldi	r24, 0x39	; 57
    27b0:	96 e0       	ldi	r25, 0x06	; 6
    27b2:	0e 94 90 03 	call	0x720	;  0x720
    27b6:	0e e0       	ldi	r16, 0x0E	; 14
    27b8:	10 e0       	ldi	r17, 0x00	; 0
    27ba:	2a e4       	ldi	r18, 0x4A	; 74
    27bc:	30 e0       	ldi	r19, 0x00	; 0
    27be:	49 e1       	ldi	r20, 0x19	; 25
    27c0:	50 e0       	ldi	r21, 0x00	; 0
    27c2:	60 e0       	ldi	r22, 0x00	; 0
    27c4:	70 e0       	ldi	r23, 0x00	; 0
    27c6:	89 e3       	ldi	r24, 0x39	; 57
    27c8:	96 e0       	ldi	r25, 0x06	; 6
    27ca:	0e 94 90 03 	call	0x720	;  0x720
    27ce:	27 e8       	ldi	r18, 0x87	; 135
    27d0:	31 e0       	ldi	r19, 0x01	; 1
    27d2:	40 e4       	ldi	r20, 0x40	; 64
    27d4:	50 e0       	ldi	r21, 0x00	; 0
    27d6:	6d e4       	ldi	r22, 0x4D	; 77
    27d8:	70 e0       	ldi	r23, 0x00	; 0
    27da:	89 e3       	ldi	r24, 0x39	; 57
    27dc:	96 e0       	ldi	r25, 0x06	; 6
    27de:	0e 94 a3 09 	call	0x1346	;  0x1346
    27e2:	2a e8       	ldi	r18, 0x8A	; 138
    27e4:	31 e0       	ldi	r19, 0x01	; 1
    27e6:	49 e1       	ldi	r20, 0x19	; 25
    27e8:	50 e0       	ldi	r21, 0x00	; 0
    27ea:	62 e3       	ldi	r22, 0x32	; 50
    27ec:	70 e0       	ldi	r23, 0x00	; 0
    27ee:	89 e3       	ldi	r24, 0x39	; 57
    27f0:	96 e0       	ldi	r25, 0x06	; 6
    27f2:	0e 94 a3 09 	call	0x1346	;  0x1346
    27f6:	89 e3       	ldi	r24, 0x39	; 57
    27f8:	96 e0       	ldi	r25, 0x06	; 6
    27fa:	0e 94 b0 04 	call	0x960	;  0x960
    27fe:	83 b7       	in	r24, 0x33	; 51
    2800:	81 60       	ori	r24, 0x01	; 1
    2802:	83 bf       	out	0x33, r24	; 51
    2804:	83 b7       	in	r24, 0x33	; 51
    2806:	81 7f       	andi	r24, 0xF1	; 241
    2808:	84 60       	ori	r24, 0x04	; 4
    280a:	83 bf       	out	0x33, r24	; 51
    280c:	80 91 38 06 	lds	r24, 0x0638	;  0x800638
    2810:	88 23       	and	r24, r24
    2812:	21 f0       	breq	.+8      	;  0x281c
    2814:	84 e1       	ldi	r24, 0x14	; 20
    2816:	91 e0       	ldi	r25, 0x01	; 1
    2818:	0e 94 0b 11 	call	0x2216	;  0x2216
    281c:	66 eb       	ldi	r22, 0xB6	; 182
    281e:	71 e0       	ldi	r23, 0x01	; 1
    2820:	89 e3       	ldi	r24, 0x39	; 57
    2822:	96 e0       	ldi	r25, 0x06	; 6
    2824:	0e 94 f9 09 	call	0x13f2	;  0x13f2
    2828:	2f e8       	ldi	r18, 0x8F	; 143
    282a:	31 e0       	ldi	r19, 0x01	; 1
    282c:	49 e1       	ldi	r20, 0x19	; 25
    282e:	50 e0       	ldi	r21, 0x00	; 0
    2830:	61 e0       	ldi	r22, 0x01	; 1
    2832:	70 e0       	ldi	r23, 0x00	; 0
    2834:	89 e3       	ldi	r24, 0x39	; 57
    2836:	96 e0       	ldi	r25, 0x06	; 6
    2838:	0e 94 a3 09 	call	0x1346	;  0x1346
    283c:	68 e7       	ldi	r22, 0x78	; 120
    283e:	73 e0       	ldi	r23, 0x03	; 3
    2840:	89 e3       	ldi	r24, 0x39	; 57
    2842:	96 e0       	ldi	r25, 0x06	; 6
    2844:	0e 94 f9 09 	call	0x13f2	;  0x13f2
    2848:	22 e9       	ldi	r18, 0x92	; 146
    284a:	31 e0       	ldi	r19, 0x01	; 1
    284c:	44 e3       	ldi	r20, 0x34	; 52
    284e:	50 e0       	ldi	r21, 0x00	; 0
    2850:	65 e0       	ldi	r22, 0x05	; 5
    2852:	70 e0       	ldi	r23, 0x00	; 0
    2854:	89 e3       	ldi	r24, 0x39	; 57
    2856:	96 e0       	ldi	r25, 0x06	; 6
    2858:	0e 94 a3 09 	call	0x1346	;  0x1346
    285c:	2b e9       	ldi	r18, 0x9B	; 155
    285e:	31 e0       	ldi	r19, 0x01	; 1
    2860:	40 e4       	ldi	r20, 0x40	; 64
    2862:	50 e0       	ldi	r21, 0x00	; 0
    2864:	65 e0       	ldi	r22, 0x05	; 5
    2866:	70 e0       	ldi	r23, 0x00	; 0
    2868:	89 e3       	ldi	r24, 0x39	; 57
    286a:	96 e0       	ldi	r25, 0x06	; 6
    286c:	0e 94 a3 09 	call	0x1346	;  0x1346
    2870:	e4 e1       	ldi	r30, 0x14	; 20
    2872:	f1 e0       	ldi	r31, 0x01	; 1
    2874:	20 81       	ld	r18, Z
    2876:	91 81       	ldd	r25, Z+1	; 0x01
    2878:	82 81       	ldd	r24, Z+2	; 0x02
    287a:	1f 92       	push	r1
    287c:	2f 93       	push	r18
    287e:	1f 92       	push	r1
    2880:	9f 93       	push	r25
    2882:	1f 92       	push	r1
    2884:	8f 93       	push	r24
    2886:	84 ea       	ldi	r24, 0xA4	; 164
    2888:	91 e0       	ldi	r25, 0x01	; 1
    288a:	9f 93       	push	r25
    288c:	8f 93       	push	r24
    288e:	8e 01       	movw	r16, r28
    2890:	0f 5f       	subi	r16, 0xFF	; 255
    2892:	1f 4f       	sbci	r17, 0xFF	; 255
    2894:	1f 93       	push	r17
    2896:	0f 93       	push	r16
    2898:	0e 94 83 19 	call	0x3306	;  0x3306
    289c:	98 01       	movw	r18, r16
    289e:	47 e2       	ldi	r20, 0x27	; 39
    28a0:	50 e0       	ldi	r21, 0x00	; 0
    28a2:	65 e0       	ldi	r22, 0x05	; 5
    28a4:	70 e0       	ldi	r23, 0x00	; 0
    28a6:	89 e3       	ldi	r24, 0x39	; 57
    28a8:	96 e0       	ldi	r25, 0x06	; 6
    28aa:	0e 94 a3 09 	call	0x1346	;  0x1346
    28ae:	89 e3       	ldi	r24, 0x39	; 57
    28b0:	96 e0       	ldi	r25, 0x06	; 6
    28b2:	0e 94 b0 04 	call	0x960	;  0x960
    28b6:	88 95       	sleep
    28b8:	0f b6       	in	r0, 0x3f	; 63
    28ba:	f8 94       	cli
    28bc:	de bf       	out	0x3e, r29	; 62
    28be:	0f be       	out	0x3f, r0	; 63
    28c0:	cd bf       	out	0x3d, r28	; 61
    28c2:	a4 cf       	rjmp	.-184    	;  0x280c
    28c4:	a0 e1       	ldi	r26, 0x10	; 16
    28c6:	b0 e0       	ldi	r27, 0x00	; 0
    28c8:	e8 e6       	ldi	r30, 0x68	; 104
    28ca:	f4 e1       	ldi	r31, 0x14	; 20
    28cc:	0c 94 1b 18 	jmp	0x3036	;  0x3036
    28d0:	7c 01       	movw	r14, r24
    28d2:	1b 01       	movw	r2, r22
    28d4:	6a 01       	movw	r12, r20
    28d6:	fc 01       	movw	r30, r24
    28d8:	17 82       	std	Z+7, r1	; 0x07
    28da:	16 82       	std	Z+6, r1	; 0x06
    28dc:	83 81       	ldd	r24, Z+3	; 0x03
    28de:	81 ff       	sbrs	r24, 1
    28e0:	44 c3       	rjmp	.+1672   	;  0x2f6a
    28e2:	9e 01       	movw	r18, r28
    28e4:	2f 5f       	subi	r18, 0xFF	; 255
    28e6:	3f 4f       	sbci	r19, 0xFF	; 255
    28e8:	39 01       	movw	r6, r18
    28ea:	f7 01       	movw	r30, r14
    28ec:	93 81       	ldd	r25, Z+3	; 0x03
    28ee:	f1 01       	movw	r30, r2
    28f0:	93 fd       	sbrc	r25, 3
    28f2:	85 91       	lpm	r24, Z+
    28f4:	93 ff       	sbrs	r25, 3
    28f6:	81 91       	ld	r24, Z+
    28f8:	1f 01       	movw	r2, r30
    28fa:	88 23       	and	r24, r24
    28fc:	09 f4       	brne	.+2      	;  0x2900
    28fe:	31 c3       	rjmp	.+1634   	;  0x2f62
    2900:	85 32       	cpi	r24, 0x25	; 37
    2902:	39 f4       	brne	.+14     	;  0x2912
    2904:	93 fd       	sbrc	r25, 3
    2906:	85 91       	lpm	r24, Z+
    2908:	93 ff       	sbrs	r25, 3
    290a:	81 91       	ld	r24, Z+
    290c:	1f 01       	movw	r2, r30
    290e:	85 32       	cpi	r24, 0x25	; 37
    2910:	39 f4       	brne	.+14     	;  0x2920
    2912:	b7 01       	movw	r22, r14
    2914:	90 e0       	ldi	r25, 0x00	; 0
    2916:	0e 94 47 19 	call	0x328e	;  0x328e
    291a:	56 01       	movw	r10, r12
    291c:	65 01       	movw	r12, r10
    291e:	e5 cf       	rjmp	.-54     	;  0x28ea
    2920:	10 e0       	ldi	r17, 0x00	; 0
    2922:	51 2c       	mov	r5, r1
    2924:	91 2c       	mov	r9, r1
    2926:	ff e1       	ldi	r31, 0x1F	; 31
    2928:	f9 15       	cp	r31, r9
    292a:	d8 f0       	brcs	.+54     	;  0x2962
    292c:	8b 32       	cpi	r24, 0x2B	; 43
    292e:	79 f0       	breq	.+30     	;  0x294e
    2930:	38 f4       	brcc	.+14     	;  0x2940
    2932:	80 32       	cpi	r24, 0x20	; 32
    2934:	79 f0       	breq	.+30     	;  0x2954
    2936:	83 32       	cpi	r24, 0x23	; 35
    2938:	a1 f4       	brne	.+40     	;  0x2962
    293a:	f9 2d       	mov	r31, r9
    293c:	f0 61       	ori	r31, 0x10	; 16
    293e:	2e c0       	rjmp	.+92     	;  0x299c
    2940:	8d 32       	cpi	r24, 0x2D	; 45
    2942:	61 f0       	breq	.+24     	;  0x295c
    2944:	80 33       	cpi	r24, 0x30	; 48
    2946:	69 f4       	brne	.+26     	;  0x2962
    2948:	29 2d       	mov	r18, r9
    294a:	21 60       	ori	r18, 0x01	; 1
    294c:	2d c0       	rjmp	.+90     	;  0x29a8
    294e:	39 2d       	mov	r19, r9
    2950:	32 60       	ori	r19, 0x02	; 2
    2952:	93 2e       	mov	r9, r19
    2954:	89 2d       	mov	r24, r9
    2956:	84 60       	ori	r24, 0x04	; 4
    2958:	98 2e       	mov	r9, r24
    295a:	2a c0       	rjmp	.+84     	;  0x29b0
    295c:	e9 2d       	mov	r30, r9
    295e:	e8 60       	ori	r30, 0x08	; 8
    2960:	15 c0       	rjmp	.+42     	;  0x298c
    2962:	97 fc       	sbrc	r9, 7
    2964:	2d c0       	rjmp	.+90     	;  0x29c0
    2966:	20 ed       	ldi	r18, 0xD0	; 208
    2968:	28 0f       	add	r18, r24
    296a:	2a 30       	cpi	r18, 0x0A	; 10
    296c:	88 f4       	brcc	.+34     	;  0x2990
    296e:	96 fe       	sbrs	r9, 6
    2970:	06 c0       	rjmp	.+12     	;  0x297e
    2972:	3a e0       	ldi	r19, 0x0A	; 10
    2974:	13 9f       	mul	r17, r19
    2976:	20 0d       	add	r18, r0
    2978:	11 24       	eor	r1, r1
    297a:	12 2f       	mov	r17, r18
    297c:	19 c0       	rjmp	.+50     	;  0x29b0
    297e:	8a e0       	ldi	r24, 0x0A	; 10
    2980:	58 9e       	mul	r5, r24
    2982:	20 0d       	add	r18, r0
    2984:	11 24       	eor	r1, r1
    2986:	52 2e       	mov	r5, r18
    2988:	e9 2d       	mov	r30, r9
    298a:	e0 62       	ori	r30, 0x20	; 32
    298c:	9e 2e       	mov	r9, r30
    298e:	10 c0       	rjmp	.+32     	;  0x29b0
    2990:	8e 32       	cpi	r24, 0x2E	; 46
    2992:	31 f4       	brne	.+12     	;  0x29a0
    2994:	96 fc       	sbrc	r9, 6
    2996:	e5 c2       	rjmp	.+1482   	;  0x2f62
    2998:	f9 2d       	mov	r31, r9
    299a:	f0 64       	ori	r31, 0x40	; 64
    299c:	9f 2e       	mov	r9, r31
    299e:	08 c0       	rjmp	.+16     	;  0x29b0
    29a0:	8c 36       	cpi	r24, 0x6C	; 108
    29a2:	21 f4       	brne	.+8      	;  0x29ac
    29a4:	29 2d       	mov	r18, r9
    29a6:	20 68       	ori	r18, 0x80	; 128
    29a8:	92 2e       	mov	r9, r18
    29aa:	02 c0       	rjmp	.+4      	;  0x29b0
    29ac:	88 36       	cpi	r24, 0x68	; 104
    29ae:	41 f4       	brne	.+16     	;  0x29c0
    29b0:	f1 01       	movw	r30, r2
    29b2:	93 fd       	sbrc	r25, 3
    29b4:	85 91       	lpm	r24, Z+
    29b6:	93 ff       	sbrs	r25, 3
    29b8:	81 91       	ld	r24, Z+
    29ba:	1f 01       	movw	r2, r30
    29bc:	81 11       	cpse	r24, r1
    29be:	b3 cf       	rjmp	.-154    	;  0x2926
    29c0:	9b eb       	ldi	r25, 0xBB	; 187
    29c2:	98 0f       	add	r25, r24
    29c4:	93 30       	cpi	r25, 0x03	; 3
    29c6:	20 f4       	brcc	.+8      	;  0x29d0
    29c8:	99 2d       	mov	r25, r9
    29ca:	90 61       	ori	r25, 0x10	; 16
    29cc:	80 5e       	subi	r24, 0xE0	; 224
    29ce:	07 c0       	rjmp	.+14     	;  0x29de
    29d0:	9b e9       	ldi	r25, 0x9B	; 155
    29d2:	98 0f       	add	r25, r24
    29d4:	93 30       	cpi	r25, 0x03	; 3
    29d6:	08 f0       	brcs	.+2      	;  0x29da
    29d8:	66 c1       	rjmp	.+716    	;  0x2ca6
    29da:	99 2d       	mov	r25, r9
    29dc:	9f 7e       	andi	r25, 0xEF	; 239
    29de:	96 ff       	sbrs	r25, 6
    29e0:	16 e0       	ldi	r17, 0x06	; 6
    29e2:	9f 73       	andi	r25, 0x3F	; 63
    29e4:	99 2e       	mov	r9, r25
    29e6:	85 36       	cpi	r24, 0x65	; 101
    29e8:	19 f4       	brne	.+6      	;  0x29f0
    29ea:	90 64       	ori	r25, 0x40	; 64
    29ec:	99 2e       	mov	r9, r25
    29ee:	08 c0       	rjmp	.+16     	;  0x2a00
    29f0:	86 36       	cpi	r24, 0x66	; 102
    29f2:	21 f4       	brne	.+8      	;  0x29fc
    29f4:	39 2f       	mov	r19, r25
    29f6:	30 68       	ori	r19, 0x80	; 128
    29f8:	93 2e       	mov	r9, r19
    29fa:	02 c0       	rjmp	.+4      	;  0x2a00
    29fc:	11 11       	cpse	r17, r1
    29fe:	11 50       	subi	r17, 0x01	; 1
    2a00:	97 fe       	sbrs	r9, 7
    2a02:	07 c0       	rjmp	.+14     	;  0x2a12
    2a04:	1c 33       	cpi	r17, 0x3C	; 60
    2a06:	50 f4       	brcc	.+20     	;  0x2a1c
    2a08:	44 24       	eor	r4, r4
    2a0a:	43 94       	inc	r4
    2a0c:	41 0e       	add	r4, r17
    2a0e:	27 e0       	ldi	r18, 0x07	; 7
    2a10:	0b c0       	rjmp	.+22     	;  0x2a28
    2a12:	18 30       	cpi	r17, 0x08	; 8
    2a14:	38 f0       	brcs	.+14     	;  0x2a24
    2a16:	27 e0       	ldi	r18, 0x07	; 7
    2a18:	17 e0       	ldi	r17, 0x07	; 7
    2a1a:	05 c0       	rjmp	.+10     	;  0x2a26
    2a1c:	27 e0       	ldi	r18, 0x07	; 7
    2a1e:	9c e3       	ldi	r25, 0x3C	; 60
    2a20:	49 2e       	mov	r4, r25
    2a22:	02 c0       	rjmp	.+4      	;  0x2a28
    2a24:	21 2f       	mov	r18, r17
    2a26:	41 2c       	mov	r4, r1
    2a28:	56 01       	movw	r10, r12
    2a2a:	84 e0       	ldi	r24, 0x04	; 4
    2a2c:	a8 0e       	add	r10, r24
    2a2e:	b1 1c       	adc	r11, r1
    2a30:	f6 01       	movw	r30, r12
    2a32:	60 81       	ld	r22, Z
    2a34:	71 81       	ldd	r23, Z+1	; 0x01
    2a36:	82 81       	ldd	r24, Z+2	; 0x02
    2a38:	93 81       	ldd	r25, Z+3	; 0x03
    2a3a:	04 2d       	mov	r16, r4
    2a3c:	a3 01       	movw	r20, r6
    2a3e:	0e 94 52 18 	call	0x30a4	;  0x30a4
    2a42:	6c 01       	movw	r12, r24
    2a44:	f9 81       	ldd	r31, Y+1	; 0x01
    2a46:	fc 87       	std	Y+12, r31	; 0x0c
    2a48:	f0 ff       	sbrs	r31, 0
    2a4a:	02 c0       	rjmp	.+4      	;  0x2a50
    2a4c:	f3 ff       	sbrs	r31, 3
    2a4e:	06 c0       	rjmp	.+12     	;  0x2a5c
    2a50:	91 fc       	sbrc	r9, 1
    2a52:	06 c0       	rjmp	.+12     	;  0x2a60
    2a54:	92 fe       	sbrs	r9, 2
    2a56:	06 c0       	rjmp	.+12     	;  0x2a64
    2a58:	00 e2       	ldi	r16, 0x20	; 32
    2a5a:	05 c0       	rjmp	.+10     	;  0x2a66
    2a5c:	0d e2       	ldi	r16, 0x2D	; 45
    2a5e:	03 c0       	rjmp	.+6      	;  0x2a66
    2a60:	0b e2       	ldi	r16, 0x2B	; 43
    2a62:	01 c0       	rjmp	.+2      	;  0x2a66
    2a64:	00 e0       	ldi	r16, 0x00	; 0
    2a66:	8c 85       	ldd	r24, Y+12	; 0x0c
    2a68:	8c 70       	andi	r24, 0x0C	; 12
    2a6a:	19 f0       	breq	.+6      	;  0x2a72
    2a6c:	01 11       	cpse	r16, r1
    2a6e:	5a c2       	rjmp	.+1204   	;  0x2f24
    2a70:	9b c2       	rjmp	.+1334   	;  0x2fa8
    2a72:	97 fe       	sbrs	r9, 7
    2a74:	10 c0       	rjmp	.+32     	;  0x2a96
    2a76:	4c 0c       	add	r4, r12
    2a78:	fc 85       	ldd	r31, Y+12	; 0x0c
    2a7a:	f4 ff       	sbrs	r31, 4
    2a7c:	04 c0       	rjmp	.+8      	;  0x2a86
    2a7e:	8a 81       	ldd	r24, Y+2	; 0x02
    2a80:	81 33       	cpi	r24, 0x31	; 49
    2a82:	09 f4       	brne	.+2      	;  0x2a86
    2a84:	4a 94       	dec	r4
    2a86:	14 14       	cp	r1, r4
    2a88:	74 f5       	brge	.+92     	;  0x2ae6
    2a8a:	28 e0       	ldi	r18, 0x08	; 8
    2a8c:	24 15       	cp	r18, r4
    2a8e:	78 f5       	brcc	.+94     	;  0x2aee
    2a90:	88 e0       	ldi	r24, 0x08	; 8
    2a92:	48 2e       	mov	r4, r24
    2a94:	2c c0       	rjmp	.+88     	;  0x2aee
    2a96:	96 fc       	sbrc	r9, 6
    2a98:	2a c0       	rjmp	.+84     	;  0x2aee
    2a9a:	81 2f       	mov	r24, r17
    2a9c:	90 e0       	ldi	r25, 0x00	; 0
    2a9e:	8c 15       	cp	r24, r12
    2aa0:	9d 05       	cpc	r25, r13
    2aa2:	9c f0       	brlt	.+38     	;  0x2aca
    2aa4:	3c ef       	ldi	r19, 0xFC	; 252
    2aa6:	c3 16       	cp	r12, r19
    2aa8:	3f ef       	ldi	r19, 0xFF	; 255
    2aaa:	d3 06       	cpc	r13, r19
    2aac:	74 f0       	brlt	.+28     	;  0x2aca
    2aae:	89 2d       	mov	r24, r9
    2ab0:	80 68       	ori	r24, 0x80	; 128
    2ab2:	98 2e       	mov	r9, r24
    2ab4:	0a c0       	rjmp	.+20     	;  0x2aca
    2ab6:	e2 e0       	ldi	r30, 0x02	; 2
    2ab8:	f0 e0       	ldi	r31, 0x00	; 0
    2aba:	ec 0f       	add	r30, r28
    2abc:	fd 1f       	adc	r31, r29
    2abe:	e1 0f       	add	r30, r17
    2ac0:	f1 1d       	adc	r31, r1
    2ac2:	80 81       	ld	r24, Z
    2ac4:	80 33       	cpi	r24, 0x30	; 48
    2ac6:	19 f4       	brne	.+6      	;  0x2ace
    2ac8:	11 50       	subi	r17, 0x01	; 1
    2aca:	11 11       	cpse	r17, r1
    2acc:	f4 cf       	rjmp	.-24     	;  0x2ab6
    2ace:	97 fe       	sbrs	r9, 7
    2ad0:	0e c0       	rjmp	.+28     	;  0x2aee
    2ad2:	44 24       	eor	r4, r4
    2ad4:	43 94       	inc	r4
    2ad6:	41 0e       	add	r4, r17
    2ad8:	81 2f       	mov	r24, r17
    2ada:	90 e0       	ldi	r25, 0x00	; 0
    2adc:	c8 16       	cp	r12, r24
    2ade:	d9 06       	cpc	r13, r25
    2ae0:	2c f4       	brge	.+10     	;  0x2aec
    2ae2:	1c 19       	sub	r17, r12
    2ae4:	04 c0       	rjmp	.+8      	;  0x2aee
    2ae6:	44 24       	eor	r4, r4
    2ae8:	43 94       	inc	r4
    2aea:	01 c0       	rjmp	.+2      	;  0x2aee
    2aec:	10 e0       	ldi	r17, 0x00	; 0
    2aee:	97 fe       	sbrs	r9, 7
    2af0:	06 c0       	rjmp	.+12     	;  0x2afe
    2af2:	1c 14       	cp	r1, r12
    2af4:	1d 04       	cpc	r1, r13
    2af6:	34 f4       	brge	.+12     	;  0x2b04
    2af8:	c6 01       	movw	r24, r12
    2afa:	01 96       	adiw	r24, 0x01	; 1
    2afc:	05 c0       	rjmp	.+10     	;  0x2b08
    2afe:	85 e0       	ldi	r24, 0x05	; 5
    2b00:	90 e0       	ldi	r25, 0x00	; 0
    2b02:	02 c0       	rjmp	.+4      	;  0x2b08
    2b04:	81 e0       	ldi	r24, 0x01	; 1
    2b06:	90 e0       	ldi	r25, 0x00	; 0
    2b08:	01 11       	cpse	r16, r1
    2b0a:	01 96       	adiw	r24, 0x01	; 1
    2b0c:	11 23       	and	r17, r17
    2b0e:	31 f0       	breq	.+12     	;  0x2b1c
    2b10:	21 2f       	mov	r18, r17
    2b12:	30 e0       	ldi	r19, 0x00	; 0
    2b14:	2f 5f       	subi	r18, 0xFF	; 255
    2b16:	3f 4f       	sbci	r19, 0xFF	; 255
    2b18:	82 0f       	add	r24, r18
    2b1a:	93 1f       	adc	r25, r19
    2b1c:	25 2d       	mov	r18, r5
    2b1e:	30 e0       	ldi	r19, 0x00	; 0
    2b20:	82 17       	cp	r24, r18
    2b22:	93 07       	cpc	r25, r19
    2b24:	14 f4       	brge	.+4      	;  0x2b2a
    2b26:	58 1a       	sub	r5, r24
    2b28:	01 c0       	rjmp	.+2      	;  0x2b2c
    2b2a:	51 2c       	mov	r5, r1
    2b2c:	89 2d       	mov	r24, r9
    2b2e:	89 70       	andi	r24, 0x09	; 9
    2b30:	49 f4       	brne	.+18     	;  0x2b44
    2b32:	55 20       	and	r5, r5
    2b34:	39 f0       	breq	.+14     	;  0x2b44
    2b36:	b7 01       	movw	r22, r14
    2b38:	80 e2       	ldi	r24, 0x20	; 32
    2b3a:	90 e0       	ldi	r25, 0x00	; 0
    2b3c:	0e 94 47 19 	call	0x328e	;  0x328e
    2b40:	5a 94       	dec	r5
    2b42:	f7 cf       	rjmp	.-18     	;  0x2b32
    2b44:	00 23       	and	r16, r16
    2b46:	29 f0       	breq	.+10     	;  0x2b52
    2b48:	b7 01       	movw	r22, r14
    2b4a:	80 2f       	mov	r24, r16
    2b4c:	90 e0       	ldi	r25, 0x00	; 0
    2b4e:	0e 94 47 19 	call	0x328e	;  0x328e
    2b52:	93 fc       	sbrc	r9, 3
    2b54:	09 c0       	rjmp	.+18     	;  0x2b68
    2b56:	55 20       	and	r5, r5
    2b58:	39 f0       	breq	.+14     	;  0x2b68
    2b5a:	b7 01       	movw	r22, r14
    2b5c:	80 e3       	ldi	r24, 0x30	; 48
    2b5e:	90 e0       	ldi	r25, 0x00	; 0
    2b60:	0e 94 47 19 	call	0x328e	;  0x328e
    2b64:	5a 94       	dec	r5
    2b66:	f7 cf       	rjmp	.-18     	;  0x2b56
    2b68:	97 fe       	sbrs	r9, 7
    2b6a:	4c c0       	rjmp	.+152    	;  0x2c04
    2b6c:	46 01       	movw	r8, r12
    2b6e:	d7 fe       	sbrs	r13, 7
    2b70:	02 c0       	rjmp	.+4      	;  0x2b76
    2b72:	81 2c       	mov	r8, r1
    2b74:	91 2c       	mov	r9, r1
    2b76:	c6 01       	movw	r24, r12
    2b78:	88 19       	sub	r24, r8
    2b7a:	99 09       	sbc	r25, r9
    2b7c:	f3 01       	movw	r30, r6
    2b7e:	e8 0f       	add	r30, r24
    2b80:	f9 1f       	adc	r31, r25
    2b82:	fe 87       	std	Y+14, r31	; 0x0e
    2b84:	ed 87       	std	Y+13, r30	; 0x0d
    2b86:	96 01       	movw	r18, r12
    2b88:	24 19       	sub	r18, r4
    2b8a:	31 09       	sbc	r19, r1
    2b8c:	38 8b       	std	Y+16, r19	; 0x10
    2b8e:	2f 87       	std	Y+15, r18	; 0x0f
    2b90:	01 2f       	mov	r16, r17
    2b92:	10 e0       	ldi	r17, 0x00	; 0
    2b94:	11 95       	neg	r17
    2b96:	01 95       	neg	r16
    2b98:	11 09       	sbc	r17, r1
    2b9a:	3f ef       	ldi	r19, 0xFF	; 255
    2b9c:	83 16       	cp	r8, r19
    2b9e:	93 06       	cpc	r9, r19
    2ba0:	29 f4       	brne	.+10     	;  0x2bac
    2ba2:	b7 01       	movw	r22, r14
    2ba4:	8e e2       	ldi	r24, 0x2E	; 46
    2ba6:	90 e0       	ldi	r25, 0x00	; 0
    2ba8:	0e 94 47 19 	call	0x328e	;  0x328e
    2bac:	c8 14       	cp	r12, r8
    2bae:	d9 04       	cpc	r13, r9
    2bb0:	4c f0       	brlt	.+18     	;  0x2bc4
    2bb2:	8f 85       	ldd	r24, Y+15	; 0x0f
    2bb4:	98 89       	ldd	r25, Y+16	; 0x10
    2bb6:	88 15       	cp	r24, r8
    2bb8:	99 05       	cpc	r25, r9
    2bba:	24 f4       	brge	.+8      	;  0x2bc4
    2bbc:	ed 85       	ldd	r30, Y+13	; 0x0d
    2bbe:	fe 85       	ldd	r31, Y+14	; 0x0e
    2bc0:	81 81       	ldd	r24, Z+1	; 0x01
    2bc2:	01 c0       	rjmp	.+2      	;  0x2bc6
    2bc4:	80 e3       	ldi	r24, 0x30	; 48
    2bc6:	f1 e0       	ldi	r31, 0x01	; 1
    2bc8:	8f 1a       	sub	r8, r31
    2bca:	91 08       	sbc	r9, r1
    2bcc:	2d 85       	ldd	r18, Y+13	; 0x0d
    2bce:	3e 85       	ldd	r19, Y+14	; 0x0e
    2bd0:	2f 5f       	subi	r18, 0xFF	; 255
    2bd2:	3f 4f       	sbci	r19, 0xFF	; 255
    2bd4:	3e 87       	std	Y+14, r19	; 0x0e
    2bd6:	2d 87       	std	Y+13, r18	; 0x0d
    2bd8:	80 16       	cp	r8, r16
    2bda:	91 06       	cpc	r9, r17
    2bdc:	2c f0       	brlt	.+10     	;  0x2be8
    2bde:	b7 01       	movw	r22, r14
    2be0:	90 e0       	ldi	r25, 0x00	; 0
    2be2:	0e 94 47 19 	call	0x328e	;  0x328e
    2be6:	d9 cf       	rjmp	.-78     	;  0x2b9a
    2be8:	c8 14       	cp	r12, r8
    2bea:	d9 04       	cpc	r13, r9
    2bec:	41 f4       	brne	.+16     	;  0x2bfe
    2bee:	9a 81       	ldd	r25, Y+2	; 0x02
    2bf0:	96 33       	cpi	r25, 0x36	; 54
    2bf2:	20 f4       	brcc	.+8      	;  0x2bfc
    2bf4:	95 33       	cpi	r25, 0x35	; 53
    2bf6:	19 f4       	brne	.+6      	;  0x2bfe
    2bf8:	3c 85       	ldd	r19, Y+12	; 0x0c
    2bfa:	34 ff       	sbrs	r19, 4
    2bfc:	81 e3       	ldi	r24, 0x31	; 49
    2bfe:	b7 01       	movw	r22, r14
    2c00:	90 e0       	ldi	r25, 0x00	; 0
    2c02:	4e c0       	rjmp	.+156    	;  0x2ca0
    2c04:	8a 81       	ldd	r24, Y+2	; 0x02
    2c06:	81 33       	cpi	r24, 0x31	; 49
    2c08:	19 f0       	breq	.+6      	;  0x2c10
    2c0a:	9c 85       	ldd	r25, Y+12	; 0x0c
    2c0c:	9f 7e       	andi	r25, 0xEF	; 239
    2c0e:	9c 87       	std	Y+12, r25	; 0x0c
    2c10:	b7 01       	movw	r22, r14
    2c12:	90 e0       	ldi	r25, 0x00	; 0
    2c14:	0e 94 47 19 	call	0x328e	;  0x328e
    2c18:	11 11       	cpse	r17, r1
    2c1a:	05 c0       	rjmp	.+10     	;  0x2c26
    2c1c:	94 fc       	sbrc	r9, 4
    2c1e:	18 c0       	rjmp	.+48     	;  0x2c50
    2c20:	85 e6       	ldi	r24, 0x65	; 101
    2c22:	90 e0       	ldi	r25, 0x00	; 0
    2c24:	17 c0       	rjmp	.+46     	;  0x2c54
    2c26:	b7 01       	movw	r22, r14
    2c28:	8e e2       	ldi	r24, 0x2E	; 46
    2c2a:	90 e0       	ldi	r25, 0x00	; 0
    2c2c:	0e 94 47 19 	call	0x328e	;  0x328e
    2c30:	1e 5f       	subi	r17, 0xFE	; 254
    2c32:	82 e0       	ldi	r24, 0x02	; 2
    2c34:	01 e0       	ldi	r16, 0x01	; 1
    2c36:	08 0f       	add	r16, r24
    2c38:	f3 01       	movw	r30, r6
    2c3a:	e8 0f       	add	r30, r24
    2c3c:	f1 1d       	adc	r31, r1
    2c3e:	80 81       	ld	r24, Z
    2c40:	b7 01       	movw	r22, r14
    2c42:	90 e0       	ldi	r25, 0x00	; 0
    2c44:	0e 94 47 19 	call	0x328e	;  0x328e
    2c48:	80 2f       	mov	r24, r16
    2c4a:	01 13       	cpse	r16, r17
    2c4c:	f3 cf       	rjmp	.-26     	;  0x2c34
    2c4e:	e6 cf       	rjmp	.-52     	;  0x2c1c
    2c50:	85 e4       	ldi	r24, 0x45	; 69
    2c52:	90 e0       	ldi	r25, 0x00	; 0
    2c54:	b7 01       	movw	r22, r14
    2c56:	0e 94 47 19 	call	0x328e	;  0x328e
    2c5a:	d7 fc       	sbrc	r13, 7
    2c5c:	06 c0       	rjmp	.+12     	;  0x2c6a
    2c5e:	c1 14       	cp	r12, r1
    2c60:	d1 04       	cpc	r13, r1
    2c62:	41 f4       	brne	.+16     	;  0x2c74
    2c64:	ec 85       	ldd	r30, Y+12	; 0x0c
    2c66:	e4 ff       	sbrs	r30, 4
    2c68:	05 c0       	rjmp	.+10     	;  0x2c74
    2c6a:	d1 94       	neg	r13
    2c6c:	c1 94       	neg	r12
    2c6e:	d1 08       	sbc	r13, r1
    2c70:	8d e2       	ldi	r24, 0x2D	; 45
    2c72:	01 c0       	rjmp	.+2      	;  0x2c76
    2c74:	8b e2       	ldi	r24, 0x2B	; 43
    2c76:	b7 01       	movw	r22, r14
    2c78:	90 e0       	ldi	r25, 0x00	; 0
    2c7a:	0e 94 47 19 	call	0x328e	;  0x328e
    2c7e:	80 e3       	ldi	r24, 0x30	; 48
    2c80:	2a e0       	ldi	r18, 0x0A	; 10
    2c82:	c2 16       	cp	r12, r18
    2c84:	d1 04       	cpc	r13, r1
    2c86:	2c f0       	brlt	.+10     	;  0x2c92
    2c88:	8f 5f       	subi	r24, 0xFF	; 255
    2c8a:	fa e0       	ldi	r31, 0x0A	; 10
    2c8c:	cf 1a       	sub	r12, r31
    2c8e:	d1 08       	sbc	r13, r1
    2c90:	f7 cf       	rjmp	.-18     	;  0x2c80
    2c92:	b7 01       	movw	r22, r14
    2c94:	90 e0       	ldi	r25, 0x00	; 0
    2c96:	0e 94 47 19 	call	0x328e	;  0x328e
    2c9a:	b7 01       	movw	r22, r14
    2c9c:	c6 01       	movw	r24, r12
    2c9e:	c0 96       	adiw	r24, 0x30	; 48
    2ca0:	0e 94 47 19 	call	0x328e	;  0x328e
    2ca4:	54 c1       	rjmp	.+680    	;  0x2f4e
    2ca6:	83 36       	cpi	r24, 0x63	; 99
    2ca8:	31 f0       	breq	.+12     	;  0x2cb6
    2caa:	83 37       	cpi	r24, 0x73	; 115
    2cac:	79 f0       	breq	.+30     	;  0x2ccc
    2cae:	83 35       	cpi	r24, 0x53	; 83
    2cb0:	09 f0       	breq	.+2      	;  0x2cb4
    2cb2:	56 c0       	rjmp	.+172    	;  0x2d60
    2cb4:	20 c0       	rjmp	.+64     	;  0x2cf6
    2cb6:	56 01       	movw	r10, r12
    2cb8:	32 e0       	ldi	r19, 0x02	; 2
    2cba:	a3 0e       	add	r10, r19
    2cbc:	b1 1c       	adc	r11, r1
    2cbe:	f6 01       	movw	r30, r12
    2cc0:	80 81       	ld	r24, Z
    2cc2:	89 83       	std	Y+1, r24	; 0x01
    2cc4:	01 e0       	ldi	r16, 0x01	; 1
    2cc6:	10 e0       	ldi	r17, 0x00	; 0
    2cc8:	63 01       	movw	r12, r6
    2cca:	12 c0       	rjmp	.+36     	;  0x2cf0
    2ccc:	56 01       	movw	r10, r12
    2cce:	f2 e0       	ldi	r31, 0x02	; 2
    2cd0:	af 0e       	add	r10, r31
    2cd2:	b1 1c       	adc	r11, r1
    2cd4:	f6 01       	movw	r30, r12
    2cd6:	c0 80       	ld	r12, Z
    2cd8:	d1 80       	ldd	r13, Z+1	; 0x01
    2cda:	96 fe       	sbrs	r9, 6
    2cdc:	03 c0       	rjmp	.+6      	;  0x2ce4
    2cde:	61 2f       	mov	r22, r17
    2ce0:	70 e0       	ldi	r23, 0x00	; 0
    2ce2:	02 c0       	rjmp	.+4      	;  0x2ce8
    2ce4:	6f ef       	ldi	r22, 0xFF	; 255
    2ce6:	7f ef       	ldi	r23, 0xFF	; 255
    2ce8:	c6 01       	movw	r24, r12
    2cea:	0e 94 3c 19 	call	0x3278	;  0x3278
    2cee:	8c 01       	movw	r16, r24
    2cf0:	f9 2d       	mov	r31, r9
    2cf2:	ff 77       	andi	r31, 0x7F	; 127
    2cf4:	14 c0       	rjmp	.+40     	;  0x2d1e
    2cf6:	56 01       	movw	r10, r12
    2cf8:	22 e0       	ldi	r18, 0x02	; 2
    2cfa:	a2 0e       	add	r10, r18
    2cfc:	b1 1c       	adc	r11, r1
    2cfe:	f6 01       	movw	r30, r12
    2d00:	c0 80       	ld	r12, Z
    2d02:	d1 80       	ldd	r13, Z+1	; 0x01
    2d04:	96 fe       	sbrs	r9, 6
    2d06:	03 c0       	rjmp	.+6      	;  0x2d0e
    2d08:	61 2f       	mov	r22, r17
    2d0a:	70 e0       	ldi	r23, 0x00	; 0
    2d0c:	02 c0       	rjmp	.+4      	;  0x2d12
    2d0e:	6f ef       	ldi	r22, 0xFF	; 255
    2d10:	7f ef       	ldi	r23, 0xFF	; 255
    2d12:	c6 01       	movw	r24, r12
    2d14:	0e 94 2a 19 	call	0x3254	;  0x3254
    2d18:	8c 01       	movw	r16, r24
    2d1a:	f9 2d       	mov	r31, r9
    2d1c:	f0 68       	ori	r31, 0x80	; 128
    2d1e:	9f 2e       	mov	r9, r31
    2d20:	f3 fd       	sbrc	r31, 3
    2d22:	1a c0       	rjmp	.+52     	;  0x2d58
    2d24:	85 2d       	mov	r24, r5
    2d26:	90 e0       	ldi	r25, 0x00	; 0
    2d28:	08 17       	cp	r16, r24
    2d2a:	19 07       	cpc	r17, r25
    2d2c:	a8 f4       	brcc	.+42     	;  0x2d58
    2d2e:	b7 01       	movw	r22, r14
    2d30:	80 e2       	ldi	r24, 0x20	; 32
    2d32:	90 e0       	ldi	r25, 0x00	; 0
    2d34:	0e 94 47 19 	call	0x328e	;  0x328e
    2d38:	5a 94       	dec	r5
    2d3a:	f4 cf       	rjmp	.-24     	;  0x2d24
    2d3c:	f6 01       	movw	r30, r12
    2d3e:	97 fc       	sbrc	r9, 7
    2d40:	85 91       	lpm	r24, Z+
    2d42:	97 fe       	sbrs	r9, 7
    2d44:	81 91       	ld	r24, Z+
    2d46:	6f 01       	movw	r12, r30
    2d48:	b7 01       	movw	r22, r14
    2d4a:	90 e0       	ldi	r25, 0x00	; 0
    2d4c:	0e 94 47 19 	call	0x328e	;  0x328e
    2d50:	51 10       	cpse	r5, r1
    2d52:	5a 94       	dec	r5
    2d54:	01 50       	subi	r16, 0x01	; 1
    2d56:	11 09       	sbc	r17, r1
    2d58:	01 15       	cp	r16, r1
    2d5a:	11 05       	cpc	r17, r1
    2d5c:	79 f7       	brne	.-34     	;  0x2d3c
    2d5e:	f7 c0       	rjmp	.+494    	;  0x2f4e
    2d60:	84 36       	cpi	r24, 0x64	; 100
    2d62:	11 f0       	breq	.+4      	;  0x2d68
    2d64:	89 36       	cpi	r24, 0x69	; 105
    2d66:	61 f5       	brne	.+88     	;  0x2dc0
    2d68:	56 01       	movw	r10, r12
    2d6a:	97 fe       	sbrs	r9, 7
    2d6c:	09 c0       	rjmp	.+18     	;  0x2d80
    2d6e:	24 e0       	ldi	r18, 0x04	; 4
    2d70:	a2 0e       	add	r10, r18
    2d72:	b1 1c       	adc	r11, r1
    2d74:	f6 01       	movw	r30, r12
    2d76:	60 81       	ld	r22, Z
    2d78:	71 81       	ldd	r23, Z+1	; 0x01
    2d7a:	82 81       	ldd	r24, Z+2	; 0x02
    2d7c:	93 81       	ldd	r25, Z+3	; 0x03
    2d7e:	0a c0       	rjmp	.+20     	;  0x2d94
    2d80:	f2 e0       	ldi	r31, 0x02	; 2
    2d82:	af 0e       	add	r10, r31
    2d84:	b1 1c       	adc	r11, r1
    2d86:	f6 01       	movw	r30, r12
    2d88:	60 81       	ld	r22, Z
    2d8a:	71 81       	ldd	r23, Z+1	; 0x01
    2d8c:	07 2e       	mov	r0, r23
    2d8e:	00 0c       	add	r0, r0
    2d90:	88 0b       	sbc	r24, r24
    2d92:	99 0b       	sbc	r25, r25
    2d94:	f9 2d       	mov	r31, r9
    2d96:	ff 76       	andi	r31, 0x6F	; 111
    2d98:	9f 2e       	mov	r9, r31
    2d9a:	97 ff       	sbrs	r25, 7
    2d9c:	09 c0       	rjmp	.+18     	;  0x2db0
    2d9e:	90 95       	com	r25
    2da0:	80 95       	com	r24
    2da2:	70 95       	com	r23
    2da4:	61 95       	neg	r22
    2da6:	7f 4f       	sbci	r23, 0xFF	; 255
    2da8:	8f 4f       	sbci	r24, 0xFF	; 255
    2daa:	9f 4f       	sbci	r25, 0xFF	; 255
    2dac:	f0 68       	ori	r31, 0x80	; 128
    2dae:	9f 2e       	mov	r9, r31
    2db0:	2a e0       	ldi	r18, 0x0A	; 10
    2db2:	30 e0       	ldi	r19, 0x00	; 0
    2db4:	a3 01       	movw	r20, r6
    2db6:	0e 94 a5 19 	call	0x334a	;  0x334a
    2dba:	c8 2e       	mov	r12, r24
    2dbc:	c6 18       	sub	r12, r6
    2dbe:	3f c0       	rjmp	.+126    	;  0x2e3e
    2dc0:	09 2d       	mov	r16, r9
    2dc2:	85 37       	cpi	r24, 0x75	; 117
    2dc4:	21 f4       	brne	.+8      	;  0x2dce
    2dc6:	0f 7e       	andi	r16, 0xEF	; 239
    2dc8:	2a e0       	ldi	r18, 0x0A	; 10
    2dca:	30 e0       	ldi	r19, 0x00	; 0
    2dcc:	1d c0       	rjmp	.+58     	;  0x2e08
    2dce:	09 7f       	andi	r16, 0xF9	; 249
    2dd0:	8f 36       	cpi	r24, 0x6F	; 111
    2dd2:	91 f0       	breq	.+36     	;  0x2df8
    2dd4:	18 f4       	brcc	.+6      	;  0x2ddc
    2dd6:	88 35       	cpi	r24, 0x58	; 88
    2dd8:	59 f0       	breq	.+22     	;  0x2df0
    2dda:	c3 c0       	rjmp	.+390    	;  0x2f62
    2ddc:	80 37       	cpi	r24, 0x70	; 112
    2dde:	19 f0       	breq	.+6      	;  0x2de6
    2de0:	88 37       	cpi	r24, 0x78	; 120
    2de2:	11 f0       	breq	.+4      	;  0x2de8
    2de4:	be c0       	rjmp	.+380    	;  0x2f62
    2de6:	00 61       	ori	r16, 0x10	; 16
    2de8:	04 ff       	sbrs	r16, 4
    2dea:	09 c0       	rjmp	.+18     	;  0x2dfe
    2dec:	04 60       	ori	r16, 0x04	; 4
    2dee:	07 c0       	rjmp	.+14     	;  0x2dfe
    2df0:	94 fe       	sbrs	r9, 4
    2df2:	08 c0       	rjmp	.+16     	;  0x2e04
    2df4:	06 60       	ori	r16, 0x06	; 6
    2df6:	06 c0       	rjmp	.+12     	;  0x2e04
    2df8:	28 e0       	ldi	r18, 0x08	; 8
    2dfa:	30 e0       	ldi	r19, 0x00	; 0
    2dfc:	05 c0       	rjmp	.+10     	;  0x2e08
    2dfe:	20 e1       	ldi	r18, 0x10	; 16
    2e00:	30 e0       	ldi	r19, 0x00	; 0
    2e02:	02 c0       	rjmp	.+4      	;  0x2e08
    2e04:	20 e1       	ldi	r18, 0x10	; 16
    2e06:	32 e0       	ldi	r19, 0x02	; 2
    2e08:	56 01       	movw	r10, r12
    2e0a:	07 ff       	sbrs	r16, 7
    2e0c:	09 c0       	rjmp	.+18     	;  0x2e20
    2e0e:	84 e0       	ldi	r24, 0x04	; 4
    2e10:	a8 0e       	add	r10, r24
    2e12:	b1 1c       	adc	r11, r1
    2e14:	f6 01       	movw	r30, r12
    2e16:	60 81       	ld	r22, Z
    2e18:	71 81       	ldd	r23, Z+1	; 0x01
    2e1a:	82 81       	ldd	r24, Z+2	; 0x02
    2e1c:	93 81       	ldd	r25, Z+3	; 0x03
    2e1e:	08 c0       	rjmp	.+16     	;  0x2e30
    2e20:	f2 e0       	ldi	r31, 0x02	; 2
    2e22:	af 0e       	add	r10, r31
    2e24:	b1 1c       	adc	r11, r1
    2e26:	f6 01       	movw	r30, r12
    2e28:	60 81       	ld	r22, Z
    2e2a:	71 81       	ldd	r23, Z+1	; 0x01
    2e2c:	80 e0       	ldi	r24, 0x00	; 0
    2e2e:	90 e0       	ldi	r25, 0x00	; 0
    2e30:	a3 01       	movw	r20, r6
    2e32:	0e 94 a5 19 	call	0x334a	;  0x334a
    2e36:	c8 2e       	mov	r12, r24
    2e38:	c6 18       	sub	r12, r6
    2e3a:	0f 77       	andi	r16, 0x7F	; 127
    2e3c:	90 2e       	mov	r9, r16
    2e3e:	96 fe       	sbrs	r9, 6
    2e40:	0b c0       	rjmp	.+22     	;  0x2e58
    2e42:	09 2d       	mov	r16, r9
    2e44:	0e 7f       	andi	r16, 0xFE	; 254
    2e46:	c1 16       	cp	r12, r17
    2e48:	50 f4       	brcc	.+20     	;  0x2e5e
    2e4a:	94 fe       	sbrs	r9, 4
    2e4c:	0a c0       	rjmp	.+20     	;  0x2e62
    2e4e:	92 fc       	sbrc	r9, 2
    2e50:	08 c0       	rjmp	.+16     	;  0x2e62
    2e52:	09 2d       	mov	r16, r9
    2e54:	0e 7e       	andi	r16, 0xEE	; 238
    2e56:	05 c0       	rjmp	.+10     	;  0x2e62
    2e58:	dc 2c       	mov	r13, r12
    2e5a:	09 2d       	mov	r16, r9
    2e5c:	03 c0       	rjmp	.+6      	;  0x2e64
    2e5e:	dc 2c       	mov	r13, r12
    2e60:	01 c0       	rjmp	.+2      	;  0x2e64
    2e62:	d1 2e       	mov	r13, r17
    2e64:	04 ff       	sbrs	r16, 4
    2e66:	0d c0       	rjmp	.+26     	;  0x2e82
    2e68:	fe 01       	movw	r30, r28
    2e6a:	ec 0d       	add	r30, r12
    2e6c:	f1 1d       	adc	r31, r1
    2e6e:	80 81       	ld	r24, Z
    2e70:	80 33       	cpi	r24, 0x30	; 48
    2e72:	11 f4       	brne	.+4      	;  0x2e78
    2e74:	09 7e       	andi	r16, 0xE9	; 233
    2e76:	09 c0       	rjmp	.+18     	;  0x2e8a
    2e78:	02 ff       	sbrs	r16, 2
    2e7a:	06 c0       	rjmp	.+12     	;  0x2e88
    2e7c:	d3 94       	inc	r13
    2e7e:	d3 94       	inc	r13
    2e80:	04 c0       	rjmp	.+8      	;  0x2e8a
    2e82:	80 2f       	mov	r24, r16
    2e84:	86 78       	andi	r24, 0x86	; 134
    2e86:	09 f0       	breq	.+2      	;  0x2e8a
    2e88:	d3 94       	inc	r13
    2e8a:	03 fd       	sbrc	r16, 3
    2e8c:	11 c0       	rjmp	.+34     	;  0x2eb0
    2e8e:	00 ff       	sbrs	r16, 0
    2e90:	06 c0       	rjmp	.+12     	;  0x2e9e
    2e92:	1c 2d       	mov	r17, r12
    2e94:	d5 14       	cp	r13, r5
    2e96:	80 f4       	brcc	.+32     	;  0x2eb8
    2e98:	15 0d       	add	r17, r5
    2e9a:	1d 19       	sub	r17, r13
    2e9c:	0d c0       	rjmp	.+26     	;  0x2eb8
    2e9e:	d5 14       	cp	r13, r5
    2ea0:	58 f4       	brcc	.+22     	;  0x2eb8
    2ea2:	b7 01       	movw	r22, r14
    2ea4:	80 e2       	ldi	r24, 0x20	; 32
    2ea6:	90 e0       	ldi	r25, 0x00	; 0
    2ea8:	0e 94 47 19 	call	0x328e	;  0x328e
    2eac:	d3 94       	inc	r13
    2eae:	f7 cf       	rjmp	.-18     	;  0x2e9e
    2eb0:	d5 14       	cp	r13, r5
    2eb2:	10 f4       	brcc	.+4      	;  0x2eb8
    2eb4:	5d 18       	sub	r5, r13
    2eb6:	01 c0       	rjmp	.+2      	;  0x2eba
    2eb8:	51 2c       	mov	r5, r1
    2eba:	04 ff       	sbrs	r16, 4
    2ebc:	10 c0       	rjmp	.+32     	;  0x2ede
    2ebe:	b7 01       	movw	r22, r14
    2ec0:	80 e3       	ldi	r24, 0x30	; 48
    2ec2:	90 e0       	ldi	r25, 0x00	; 0
    2ec4:	0e 94 47 19 	call	0x328e	;  0x328e
    2ec8:	02 ff       	sbrs	r16, 2
    2eca:	17 c0       	rjmp	.+46     	;  0x2efa
    2ecc:	01 fd       	sbrc	r16, 1
    2ece:	03 c0       	rjmp	.+6      	;  0x2ed6
    2ed0:	88 e7       	ldi	r24, 0x78	; 120
    2ed2:	90 e0       	ldi	r25, 0x00	; 0
    2ed4:	02 c0       	rjmp	.+4      	;  0x2eda
    2ed6:	88 e5       	ldi	r24, 0x58	; 88
    2ed8:	90 e0       	ldi	r25, 0x00	; 0
    2eda:	b7 01       	movw	r22, r14
    2edc:	0c c0       	rjmp	.+24     	;  0x2ef6
    2ede:	80 2f       	mov	r24, r16
    2ee0:	86 78       	andi	r24, 0x86	; 134
    2ee2:	59 f0       	breq	.+22     	;  0x2efa
    2ee4:	01 ff       	sbrs	r16, 1
    2ee6:	02 c0       	rjmp	.+4      	;  0x2eec
    2ee8:	8b e2       	ldi	r24, 0x2B	; 43
    2eea:	01 c0       	rjmp	.+2      	;  0x2eee
    2eec:	80 e2       	ldi	r24, 0x20	; 32
    2eee:	07 fd       	sbrc	r16, 7
    2ef0:	8d e2       	ldi	r24, 0x2D	; 45
    2ef2:	b7 01       	movw	r22, r14
    2ef4:	90 e0       	ldi	r25, 0x00	; 0
    2ef6:	0e 94 47 19 	call	0x328e	;  0x328e
    2efa:	c1 16       	cp	r12, r17
    2efc:	38 f4       	brcc	.+14     	;  0x2f0c
    2efe:	b7 01       	movw	r22, r14
    2f00:	80 e3       	ldi	r24, 0x30	; 48
    2f02:	90 e0       	ldi	r25, 0x00	; 0
    2f04:	0e 94 47 19 	call	0x328e	;  0x328e
    2f08:	11 50       	subi	r17, 0x01	; 1
    2f0a:	f7 cf       	rjmp	.-18     	;  0x2efa
    2f0c:	ca 94       	dec	r12
    2f0e:	f3 01       	movw	r30, r6
    2f10:	ec 0d       	add	r30, r12
    2f12:	f1 1d       	adc	r31, r1
    2f14:	80 81       	ld	r24, Z
    2f16:	b7 01       	movw	r22, r14
    2f18:	90 e0       	ldi	r25, 0x00	; 0
    2f1a:	0e 94 47 19 	call	0x328e	;  0x328e
    2f1e:	c1 10       	cpse	r12, r1
    2f20:	f5 cf       	rjmp	.-22     	;  0x2f0c
    2f22:	15 c0       	rjmp	.+42     	;  0x2f4e
    2f24:	f4 e0       	ldi	r31, 0x04	; 4
    2f26:	f5 15       	cp	r31, r5
    2f28:	60 f5       	brcc	.+88     	;  0x2f82
    2f2a:	84 e0       	ldi	r24, 0x04	; 4
    2f2c:	58 1a       	sub	r5, r24
    2f2e:	93 fe       	sbrs	r9, 3
    2f30:	1f c0       	rjmp	.+62     	;  0x2f70
    2f32:	01 11       	cpse	r16, r1
    2f34:	27 c0       	rjmp	.+78     	;  0x2f84
    2f36:	2c 85       	ldd	r18, Y+12	; 0x0c
    2f38:	23 ff       	sbrs	r18, 3
    2f3a:	2a c0       	rjmp	.+84     	;  0x2f90
    2f3c:	04 eb       	ldi	r16, 0xB4	; 180
    2f3e:	10 e0       	ldi	r17, 0x00	; 0
    2f40:	39 2d       	mov	r19, r9
    2f42:	30 71       	andi	r19, 0x10	; 16
    2f44:	93 2e       	mov	r9, r19
    2f46:	f8 01       	movw	r30, r16
    2f48:	84 91       	lpm	r24, Z
    2f4a:	81 11       	cpse	r24, r1
    2f4c:	24 c0       	rjmp	.+72     	;  0x2f96
    2f4e:	55 20       	and	r5, r5
    2f50:	09 f4       	brne	.+2      	;  0x2f54
    2f52:	e4 cc       	rjmp	.-1592   	;  0x291c
    2f54:	b7 01       	movw	r22, r14
    2f56:	80 e2       	ldi	r24, 0x20	; 32
    2f58:	90 e0       	ldi	r25, 0x00	; 0
    2f5a:	0e 94 47 19 	call	0x328e	;  0x328e
    2f5e:	5a 94       	dec	r5
    2f60:	f6 cf       	rjmp	.-20     	;  0x2f4e
    2f62:	f7 01       	movw	r30, r14
    2f64:	86 81       	ldd	r24, Z+6	; 0x06
    2f66:	97 81       	ldd	r25, Z+7	; 0x07
    2f68:	26 c0       	rjmp	.+76     	;  0x2fb6
    2f6a:	8f ef       	ldi	r24, 0xFF	; 255
    2f6c:	9f ef       	ldi	r25, 0xFF	; 255
    2f6e:	23 c0       	rjmp	.+70     	;  0x2fb6
    2f70:	b7 01       	movw	r22, r14
    2f72:	80 e2       	ldi	r24, 0x20	; 32
    2f74:	90 e0       	ldi	r25, 0x00	; 0
    2f76:	0e 94 47 19 	call	0x328e	;  0x328e
    2f7a:	5a 94       	dec	r5
    2f7c:	51 10       	cpse	r5, r1
    2f7e:	f8 cf       	rjmp	.-16     	;  0x2f70
    2f80:	d8 cf       	rjmp	.-80     	;  0x2f32
    2f82:	51 2c       	mov	r5, r1
    2f84:	b7 01       	movw	r22, r14
    2f86:	80 2f       	mov	r24, r16
    2f88:	90 e0       	ldi	r25, 0x00	; 0
    2f8a:	0e 94 47 19 	call	0x328e	;  0x328e
    2f8e:	d3 cf       	rjmp	.-90     	;  0x2f36
    2f90:	08 eb       	ldi	r16, 0xB8	; 184
    2f92:	10 e0       	ldi	r17, 0x00	; 0
    2f94:	d5 cf       	rjmp	.-86     	;  0x2f40
    2f96:	91 10       	cpse	r9, r1
    2f98:	80 52       	subi	r24, 0x20	; 32
    2f9a:	b7 01       	movw	r22, r14
    2f9c:	90 e0       	ldi	r25, 0x00	; 0
    2f9e:	0e 94 47 19 	call	0x328e	;  0x328e
    2fa2:	0f 5f       	subi	r16, 0xFF	; 255
    2fa4:	1f 4f       	sbci	r17, 0xFF	; 255
    2fa6:	cf cf       	rjmp	.-98     	;  0x2f46
    2fa8:	23 e0       	ldi	r18, 0x03	; 3
    2faa:	25 15       	cp	r18, r5
    2fac:	10 f4       	brcc	.+4      	;  0x2fb2
    2fae:	83 e0       	ldi	r24, 0x03	; 3
    2fb0:	bd cf       	rjmp	.-134    	;  0x2f2c
    2fb2:	51 2c       	mov	r5, r1
    2fb4:	c0 cf       	rjmp	.-128    	;  0x2f36
    2fb6:	60 96       	adiw	r28, 0x10	; 16
    2fb8:	e2 e1       	ldi	r30, 0x12	; 18
    2fba:	0c 94 37 18 	jmp	0x306e	;  0x306e
    2fbe:	a1 e2       	ldi	r26, 0x21	; 33
    2fc0:	1a 2e       	mov	r1, r26
    2fc2:	aa 1b       	sub	r26, r26
    2fc4:	bb 1b       	sub	r27, r27
    2fc6:	fd 01       	movw	r30, r26
    2fc8:	0d c0       	rjmp	.+26     	;  0x2fe4
    2fca:	aa 1f       	adc	r26, r26
    2fcc:	bb 1f       	adc	r27, r27
    2fce:	ee 1f       	adc	r30, r30
    2fd0:	ff 1f       	adc	r31, r31
    2fd2:	a2 17       	cp	r26, r18
    2fd4:	b3 07       	cpc	r27, r19
    2fd6:	e4 07       	cpc	r30, r20
    2fd8:	f5 07       	cpc	r31, r21
    2fda:	20 f0       	brcs	.+8      	;  0x2fe4
    2fdc:	a2 1b       	sub	r26, r18
    2fde:	b3 0b       	sbc	r27, r19
    2fe0:	e4 0b       	sbc	r30, r20
    2fe2:	f5 0b       	sbc	r31, r21
    2fe4:	66 1f       	adc	r22, r22
    2fe6:	77 1f       	adc	r23, r23
    2fe8:	88 1f       	adc	r24, r24
    2fea:	99 1f       	adc	r25, r25
    2fec:	1a 94       	dec	r1
    2fee:	69 f7       	brne	.-38     	;  0x2fca
    2ff0:	60 95       	com	r22
    2ff2:	70 95       	com	r23
    2ff4:	80 95       	com	r24
    2ff6:	90 95       	com	r25
    2ff8:	9b 01       	movw	r18, r22
    2ffa:	ac 01       	movw	r20, r24
    2ffc:	bd 01       	movw	r22, r26
    2ffe:	cf 01       	movw	r24, r30
    3000:	08 95       	ret
    3002:	a2 9f       	mul	r26, r18
    3004:	b0 01       	movw	r22, r0
    3006:	b3 9f       	mul	r27, r19
    3008:	c0 01       	movw	r24, r0
    300a:	a3 9f       	mul	r26, r19
    300c:	70 0d       	add	r23, r0
    300e:	81 1d       	adc	r24, r1
    3010:	11 24       	eor	r1, r1
    3012:	91 1d       	adc	r25, r1
    3014:	b2 9f       	mul	r27, r18
    3016:	70 0d       	add	r23, r0
    3018:	81 1d       	adc	r24, r1
    301a:	11 24       	eor	r1, r1
    301c:	91 1d       	adc	r25, r1
    301e:	08 95       	ret
    3020:	0e 94 01 18 	call	0x3002	;  0x3002
    3024:	a5 9f       	mul	r26, r21
    3026:	90 0d       	add	r25, r0
    3028:	b4 9f       	mul	r27, r20
    302a:	90 0d       	add	r25, r0
    302c:	a4 9f       	mul	r26, r20
    302e:	80 0d       	add	r24, r0
    3030:	91 1d       	adc	r25, r1
    3032:	11 24       	eor	r1, r1
    3034:	08 95       	ret
    3036:	2f 92       	push	r2
    3038:	3f 92       	push	r3
    303a:	4f 92       	push	r4
    303c:	5f 92       	push	r5
    303e:	6f 92       	push	r6
    3040:	7f 92       	push	r7
    3042:	8f 92       	push	r8
    3044:	9f 92       	push	r9
    3046:	af 92       	push	r10
    3048:	bf 92       	push	r11
    304a:	cf 92       	push	r12
    304c:	df 92       	push	r13
    304e:	ef 92       	push	r14
    3050:	ff 92       	push	r15
    3052:	0f 93       	push	r16
    3054:	1f 93       	push	r17
    3056:	cf 93       	push	r28
    3058:	df 93       	push	r29
    305a:	cd b7       	in	r28, 0x3d	; 61
    305c:	de b7       	in	r29, 0x3e	; 62
    305e:	ca 1b       	sub	r28, r26
    3060:	db 0b       	sbc	r29, r27
    3062:	0f b6       	in	r0, 0x3f	; 63
    3064:	f8 94       	cli
    3066:	de bf       	out	0x3e, r29	; 62
    3068:	0f be       	out	0x3f, r0	; 63
    306a:	cd bf       	out	0x3d, r28	; 61
    306c:	09 94       	ijmp
    306e:	2a 88       	ldd	r2, Y+18	; 0x12
    3070:	39 88       	ldd	r3, Y+17	; 0x11
    3072:	48 88       	ldd	r4, Y+16	; 0x10
    3074:	5f 84       	ldd	r5, Y+15	; 0x0f
    3076:	6e 84       	ldd	r6, Y+14	; 0x0e
    3078:	7d 84       	ldd	r7, Y+13	; 0x0d
    307a:	8c 84       	ldd	r8, Y+12	; 0x0c
    307c:	9b 84       	ldd	r9, Y+11	; 0x0b
    307e:	aa 84       	ldd	r10, Y+10	; 0x0a
    3080:	b9 84       	ldd	r11, Y+9	; 0x09
    3082:	c8 84       	ldd	r12, Y+8	; 0x08
    3084:	df 80       	ldd	r13, Y+7	; 0x07
    3086:	ee 80       	ldd	r14, Y+6	; 0x06
    3088:	fd 80       	ldd	r15, Y+5	; 0x05
    308a:	0c 81       	ldd	r16, Y+4	; 0x04
    308c:	1b 81       	ldd	r17, Y+3	; 0x03
    308e:	aa 81       	ldd	r26, Y+2	; 0x02
    3090:	b9 81       	ldd	r27, Y+1	; 0x01
    3092:	ce 0f       	add	r28, r30
    3094:	d1 1d       	adc	r29, r1
    3096:	0f b6       	in	r0, 0x3f	; 63
    3098:	f8 94       	cli
    309a:	de bf       	out	0x3e, r29	; 62
    309c:	0f be       	out	0x3f, r0	; 63
    309e:	cd bf       	out	0x3d, r28	; 61
    30a0:	ed 01       	movw	r28, r26
    30a2:	08 95       	ret
    30a4:	28 30       	cpi	r18, 0x08	; 8
    30a6:	08 f0       	brcs	.+2      	;  0x30aa
    30a8:	27 e0       	ldi	r18, 0x07	; 7
    30aa:	33 27       	eor	r19, r19
    30ac:	da 01       	movw	r26, r20
    30ae:	99 0f       	add	r25, r25
    30b0:	31 1d       	adc	r19, r1
    30b2:	87 fd       	sbrc	r24, 7
    30b4:	91 60       	ori	r25, 0x01	; 1
    30b6:	00 96       	adiw	r24, 0x00	; 0
    30b8:	61 05       	cpc	r22, r1
    30ba:	71 05       	cpc	r23, r1
    30bc:	39 f4       	brne	.+14     	;  0x30cc
    30be:	32 60       	ori	r19, 0x02	; 2
    30c0:	2e 5f       	subi	r18, 0xFE	; 254
    30c2:	3d 93       	st	X+, r19
    30c4:	30 e3       	ldi	r19, 0x30	; 48
    30c6:	2a 95       	dec	r18
    30c8:	e1 f7       	brne	.-8      	;  0x30c2
    30ca:	08 95       	ret
    30cc:	9f 3f       	cpi	r25, 0xFF	; 255
    30ce:	30 f0       	brcs	.+12     	;  0x30dc
    30d0:	80 38       	cpi	r24, 0x80	; 128
    30d2:	71 05       	cpc	r23, r1
    30d4:	61 05       	cpc	r22, r1
    30d6:	09 f0       	breq	.+2      	;  0x30da
    30d8:	3c 5f       	subi	r19, 0xFC	; 252
    30da:	3c 5f       	subi	r19, 0xFC	; 252
    30dc:	3d 93       	st	X+, r19
    30de:	91 30       	cpi	r25, 0x01	; 1
    30e0:	08 f0       	brcs	.+2      	;  0x30e4
    30e2:	80 68       	ori	r24, 0x80	; 128
    30e4:	91 1d       	adc	r25, r1
    30e6:	df 93       	push	r29
    30e8:	cf 93       	push	r28
    30ea:	1f 93       	push	r17
    30ec:	0f 93       	push	r16
    30ee:	ff 92       	push	r15
    30f0:	ef 92       	push	r14
    30f2:	19 2f       	mov	r17, r25
    30f4:	98 7f       	andi	r25, 0xF8	; 248
    30f6:	96 95       	lsr	r25
    30f8:	e9 2f       	mov	r30, r25
    30fa:	96 95       	lsr	r25
    30fc:	96 95       	lsr	r25
    30fe:	e9 0f       	add	r30, r25
    3100:	ff 27       	eor	r31, r31
    3102:	ea 5e       	subi	r30, 0xEA	; 234
    3104:	fe 4f       	sbci	r31, 0xFE	; 254
    3106:	99 27       	eor	r25, r25
    3108:	33 27       	eor	r19, r19
    310a:	ee 24       	eor	r14, r14
    310c:	ff 24       	eor	r15, r15
    310e:	a7 01       	movw	r20, r14
    3110:	e7 01       	movw	r28, r14
    3112:	05 90       	lpm	r0, Z+
    3114:	08 94       	sec
    3116:	07 94       	ror	r0
    3118:	28 f4       	brcc	.+10     	;  0x3124
    311a:	36 0f       	add	r19, r22
    311c:	e7 1e       	adc	r14, r23
    311e:	f8 1e       	adc	r15, r24
    3120:	49 1f       	adc	r20, r25
    3122:	51 1d       	adc	r21, r1
    3124:	66 0f       	add	r22, r22
    3126:	77 1f       	adc	r23, r23
    3128:	88 1f       	adc	r24, r24
    312a:	99 1f       	adc	r25, r25
    312c:	06 94       	lsr	r0
    312e:	a1 f7       	brne	.-24     	;  0x3118
    3130:	05 90       	lpm	r0, Z+
    3132:	07 94       	ror	r0
    3134:	28 f4       	brcc	.+10     	;  0x3140
    3136:	e7 0e       	add	r14, r23
    3138:	f8 1e       	adc	r15, r24
    313a:	49 1f       	adc	r20, r25
    313c:	56 1f       	adc	r21, r22
    313e:	c1 1d       	adc	r28, r1
    3140:	77 0f       	add	r23, r23
    3142:	88 1f       	adc	r24, r24
    3144:	99 1f       	adc	r25, r25
    3146:	66 1f       	adc	r22, r22
    3148:	06 94       	lsr	r0
    314a:	a1 f7       	brne	.-24     	;  0x3134
    314c:	05 90       	lpm	r0, Z+
    314e:	07 94       	ror	r0
    3150:	28 f4       	brcc	.+10     	;  0x315c
    3152:	f8 0e       	add	r15, r24
    3154:	49 1f       	adc	r20, r25
    3156:	56 1f       	adc	r21, r22
    3158:	c7 1f       	adc	r28, r23
    315a:	d1 1d       	adc	r29, r1
    315c:	88 0f       	add	r24, r24
    315e:	99 1f       	adc	r25, r25
    3160:	66 1f       	adc	r22, r22
    3162:	77 1f       	adc	r23, r23
    3164:	06 94       	lsr	r0
    3166:	a1 f7       	brne	.-24     	;  0x3150
    3168:	05 90       	lpm	r0, Z+
    316a:	07 94       	ror	r0
    316c:	20 f4       	brcc	.+8      	;  0x3176
    316e:	49 0f       	add	r20, r25
    3170:	56 1f       	adc	r21, r22
    3172:	c7 1f       	adc	r28, r23
    3174:	d8 1f       	adc	r29, r24
    3176:	99 0f       	add	r25, r25
    3178:	66 1f       	adc	r22, r22
    317a:	77 1f       	adc	r23, r23
    317c:	88 1f       	adc	r24, r24
    317e:	06 94       	lsr	r0
    3180:	a9 f7       	brne	.-22     	;  0x316c
    3182:	84 91       	lpm	r24, Z
    3184:	10 95       	com	r17
    3186:	17 70       	andi	r17, 0x07	; 7
    3188:	41 f0       	breq	.+16     	;  0x319a
    318a:	d6 95       	lsr	r29
    318c:	c7 95       	ror	r28
    318e:	57 95       	ror	r21
    3190:	47 95       	ror	r20
    3192:	f7 94       	ror	r15
    3194:	e7 94       	ror	r14
    3196:	1a 95       	dec	r17
    3198:	c1 f7       	brne	.-16     	;  0x318a
    319a:	ec eb       	ldi	r30, 0xBC	; 188
    319c:	f0 e0       	ldi	r31, 0x00	; 0
    319e:	68 94       	set
    31a0:	15 90       	lpm	r1, Z+
    31a2:	15 91       	lpm	r17, Z+
    31a4:	35 91       	lpm	r19, Z+
    31a6:	65 91       	lpm	r22, Z+
    31a8:	95 91       	lpm	r25, Z+
    31aa:	05 90       	lpm	r0, Z+
    31ac:	7f e2       	ldi	r23, 0x2F	; 47
    31ae:	73 95       	inc	r23
    31b0:	e1 18       	sub	r14, r1
    31b2:	f1 0a       	sbc	r15, r17
    31b4:	43 0b       	sbc	r20, r19
    31b6:	56 0b       	sbc	r21, r22
    31b8:	c9 0b       	sbc	r28, r25
    31ba:	d0 09       	sbc	r29, r0
    31bc:	c0 f7       	brcc	.-16     	;  0x31ae
    31be:	e1 0c       	add	r14, r1
    31c0:	f1 1e       	adc	r15, r17
    31c2:	43 1f       	adc	r20, r19
    31c4:	56 1f       	adc	r21, r22
    31c6:	c9 1f       	adc	r28, r25
    31c8:	d0 1d       	adc	r29, r0
    31ca:	7e f4       	brtc	.+30     	;  0x31ea
    31cc:	70 33       	cpi	r23, 0x30	; 48
    31ce:	11 f4       	brne	.+4      	;  0x31d4
    31d0:	8a 95       	dec	r24
    31d2:	e6 cf       	rjmp	.-52     	;  0x31a0
    31d4:	e8 94       	clt
    31d6:	01 50       	subi	r16, 0x01	; 1
    31d8:	30 f0       	brcs	.+12     	;  0x31e6
    31da:	08 0f       	add	r16, r24
    31dc:	0a f4       	brpl	.+2      	;  0x31e0
    31de:	00 27       	eor	r16, r16
    31e0:	02 17       	cp	r16, r18
    31e2:	08 f4       	brcc	.+2      	;  0x31e6
    31e4:	20 2f       	mov	r18, r16
    31e6:	23 95       	inc	r18
    31e8:	02 2f       	mov	r16, r18
    31ea:	7a 33       	cpi	r23, 0x3A	; 58
    31ec:	28 f0       	brcs	.+10     	;  0x31f8
    31ee:	79 e3       	ldi	r23, 0x39	; 57
    31f0:	7d 93       	st	X+, r23
    31f2:	2a 95       	dec	r18
    31f4:	e9 f7       	brne	.-6      	;  0x31f0
    31f6:	10 c0       	rjmp	.+32     	;  0x3218
    31f8:	7d 93       	st	X+, r23
    31fa:	2a 95       	dec	r18
    31fc:	89 f6       	brne	.-94     	;  0x31a0
    31fe:	06 94       	lsr	r0
    3200:	97 95       	ror	r25
    3202:	67 95       	ror	r22
    3204:	37 95       	ror	r19
    3206:	17 95       	ror	r17
    3208:	17 94       	ror	r1
    320a:	e1 18       	sub	r14, r1
    320c:	f1 0a       	sbc	r15, r17
    320e:	43 0b       	sbc	r20, r19
    3210:	56 0b       	sbc	r21, r22
    3212:	c9 0b       	sbc	r28, r25
    3214:	d0 09       	sbc	r29, r0
    3216:	98 f0       	brcs	.+38     	;  0x323e
    3218:	23 95       	inc	r18
    321a:	7e 91       	ld	r23, -X
    321c:	73 95       	inc	r23
    321e:	7a 33       	cpi	r23, 0x3A	; 58
    3220:	08 f0       	brcs	.+2      	;  0x3224
    3222:	70 e3       	ldi	r23, 0x30	; 48
    3224:	7c 93       	st	X, r23
    3226:	20 13       	cpse	r18, r16
    3228:	b8 f7       	brcc	.-18     	;  0x3218
    322a:	7e 91       	ld	r23, -X
    322c:	70 61       	ori	r23, 0x10	; 16
    322e:	7d 93       	st	X+, r23
    3230:	30 f0       	brcs	.+12     	;  0x323e
    3232:	83 95       	inc	r24
    3234:	71 e3       	ldi	r23, 0x31	; 49
    3236:	7d 93       	st	X+, r23
    3238:	70 e3       	ldi	r23, 0x30	; 48
    323a:	2a 95       	dec	r18
    323c:	e1 f7       	brne	.-8      	;  0x3236
    323e:	11 24       	eor	r1, r1
    3240:	ef 90       	pop	r14
    3242:	ff 90       	pop	r15
    3244:	0f 91       	pop	r16
    3246:	1f 91       	pop	r17
    3248:	cf 91       	pop	r28
    324a:	df 91       	pop	r29
    324c:	99 27       	eor	r25, r25
    324e:	87 fd       	sbrc	r24, 7
    3250:	90 95       	com	r25
    3252:	08 95       	ret
    3254:	fc 01       	movw	r30, r24
    3256:	05 90       	lpm	r0, Z+
    3258:	61 50       	subi	r22, 0x01	; 1
    325a:	70 40       	sbci	r23, 0x00	; 0
    325c:	01 10       	cpse	r0, r1
    325e:	d8 f7       	brcc	.-10     	;  0x3256
    3260:	80 95       	com	r24
    3262:	90 95       	com	r25
    3264:	8e 0f       	add	r24, r30
    3266:	9f 1f       	adc	r25, r31
    3268:	08 95       	ret
    326a:	dc 01       	movw	r26, r24
    326c:	01 c0       	rjmp	.+2      	;  0x3270
    326e:	6d 93       	st	X+, r22
    3270:	41 50       	subi	r20, 0x01	; 1
    3272:	50 40       	sbci	r21, 0x00	; 0
    3274:	e0 f7       	brcc	.-8      	;  0x326e
    3276:	08 95       	ret
    3278:	fc 01       	movw	r30, r24
    327a:	61 50       	subi	r22, 0x01	; 1
    327c:	70 40       	sbci	r23, 0x00	; 0
    327e:	01 90       	ld	r0, Z+
    3280:	01 10       	cpse	r0, r1
    3282:	d8 f7       	brcc	.-10     	;  0x327a
    3284:	80 95       	com	r24
    3286:	90 95       	com	r25
    3288:	8e 0f       	add	r24, r30
    328a:	9f 1f       	adc	r25, r31
    328c:	08 95       	ret
    328e:	0f 93       	push	r16
    3290:	1f 93       	push	r17
    3292:	cf 93       	push	r28
    3294:	df 93       	push	r29
    3296:	fb 01       	movw	r30, r22
    3298:	23 81       	ldd	r18, Z+3	; 0x03
    329a:	21 fd       	sbrc	r18, 1
    329c:	03 c0       	rjmp	.+6      	;  0x32a4
    329e:	8f ef       	ldi	r24, 0xFF	; 255
    32a0:	9f ef       	ldi	r25, 0xFF	; 255
    32a2:	2c c0       	rjmp	.+88     	;  0x32fc
    32a4:	22 ff       	sbrs	r18, 2
    32a6:	16 c0       	rjmp	.+44     	;  0x32d4
    32a8:	46 81       	ldd	r20, Z+6	; 0x06
    32aa:	57 81       	ldd	r21, Z+7	; 0x07
    32ac:	24 81       	ldd	r18, Z+4	; 0x04
    32ae:	35 81       	ldd	r19, Z+5	; 0x05
    32b0:	42 17       	cp	r20, r18
    32b2:	53 07       	cpc	r21, r19
    32b4:	44 f4       	brge	.+16     	;  0x32c6
    32b6:	a0 81       	ld	r26, Z
    32b8:	b1 81       	ldd	r27, Z+1	; 0x01
    32ba:	9d 01       	movw	r18, r26
    32bc:	2f 5f       	subi	r18, 0xFF	; 255
    32be:	3f 4f       	sbci	r19, 0xFF	; 255
    32c0:	31 83       	std	Z+1, r19	; 0x01
    32c2:	20 83       	st	Z, r18
    32c4:	8c 93       	st	X, r24
    32c6:	26 81       	ldd	r18, Z+6	; 0x06
    32c8:	37 81       	ldd	r19, Z+7	; 0x07
    32ca:	2f 5f       	subi	r18, 0xFF	; 255
    32cc:	3f 4f       	sbci	r19, 0xFF	; 255
    32ce:	37 83       	std	Z+7, r19	; 0x07
    32d0:	26 83       	std	Z+6, r18	; 0x06
    32d2:	14 c0       	rjmp	.+40     	;  0x32fc
    32d4:	8b 01       	movw	r16, r22
    32d6:	ec 01       	movw	r28, r24
    32d8:	fb 01       	movw	r30, r22
    32da:	00 84       	ldd	r0, Z+8	; 0x08
    32dc:	f1 85       	ldd	r31, Z+9	; 0x09
    32de:	e0 2d       	mov	r30, r0
    32e0:	09 95       	icall
    32e2:	89 2b       	or	r24, r25
    32e4:	e1 f6       	brne	.-72     	;  0x329e
    32e6:	d8 01       	movw	r26, r16
    32e8:	16 96       	adiw	r26, 0x06	; 6
    32ea:	8d 91       	ld	r24, X+
    32ec:	9c 91       	ld	r25, X
    32ee:	17 97       	sbiw	r26, 0x07	; 7
    32f0:	01 96       	adiw	r24, 0x01	; 1
    32f2:	17 96       	adiw	r26, 0x07	; 7
    32f4:	9c 93       	st	X, r25
    32f6:	8e 93       	st	-X, r24
    32f8:	16 97       	sbiw	r26, 0x06	; 6
    32fa:	ce 01       	movw	r24, r28
    32fc:	df 91       	pop	r29
    32fe:	cf 91       	pop	r28
    3300:	1f 91       	pop	r17
    3302:	0f 91       	pop	r16
    3304:	08 95       	ret
    3306:	ae e0       	ldi	r26, 0x0E	; 14
    3308:	b0 e0       	ldi	r27, 0x00	; 0
    330a:	e9 e8       	ldi	r30, 0x89	; 137
    330c:	f9 e1       	ldi	r31, 0x19	; 25
    330e:	0c 94 29 18 	jmp	0x3052	;  0x3052
    3312:	0d 89       	ldd	r16, Y+21	; 0x15
    3314:	1e 89       	ldd	r17, Y+22	; 0x16
    3316:	86 e0       	ldi	r24, 0x06	; 6
    3318:	8c 83       	std	Y+4, r24	; 0x04
    331a:	1a 83       	std	Y+2, r17	; 0x02
    331c:	09 83       	std	Y+1, r16	; 0x01
    331e:	8f ef       	ldi	r24, 0xFF	; 255
    3320:	9f e7       	ldi	r25, 0x7F	; 127
    3322:	9e 83       	std	Y+6, r25	; 0x06
    3324:	8d 83       	std	Y+5, r24	; 0x05
    3326:	ae 01       	movw	r20, r28
    3328:	47 5e       	subi	r20, 0xE7	; 231
    332a:	5f 4f       	sbci	r21, 0xFF	; 255
    332c:	6f 89       	ldd	r22, Y+23	; 0x17
    332e:	78 8d       	ldd	r23, Y+24	; 0x18
    3330:	ce 01       	movw	r24, r28
    3332:	01 96       	adiw	r24, 0x01	; 1
    3334:	0e 94 62 14 	call	0x28c4	;  0x28c4
    3338:	ef 81       	ldd	r30, Y+7	; 0x07
    333a:	f8 85       	ldd	r31, Y+8	; 0x08
    333c:	e0 0f       	add	r30, r16
    333e:	f1 1f       	adc	r31, r17
    3340:	10 82       	st	Z, r1
    3342:	2e 96       	adiw	r28, 0x0e	; 14
    3344:	e4 e0       	ldi	r30, 0x04	; 4
    3346:	0c 94 45 18 	jmp	0x308a	;  0x308a
    334a:	fa 01       	movw	r30, r20
    334c:	aa 27       	eor	r26, r26
    334e:	28 30       	cpi	r18, 0x08	; 8
    3350:	51 f1       	breq	.+84     	;  0x33a6
    3352:	20 31       	cpi	r18, 0x10	; 16
    3354:	81 f1       	breq	.+96     	;  0x33b6
    3356:	e8 94       	clt
    3358:	6f 93       	push	r22
    335a:	6e 7f       	andi	r22, 0xFE	; 254
    335c:	6e 5f       	subi	r22, 0xFE	; 254
    335e:	7f 4f       	sbci	r23, 0xFF	; 255
    3360:	8f 4f       	sbci	r24, 0xFF	; 255
    3362:	9f 4f       	sbci	r25, 0xFF	; 255
    3364:	af 4f       	sbci	r26, 0xFF	; 255
    3366:	b1 e0       	ldi	r27, 0x01	; 1
    3368:	3e d0       	rcall	.+124    	;  0x33e6
    336a:	b4 e0       	ldi	r27, 0x04	; 4
    336c:	3c d0       	rcall	.+120    	;  0x33e6
    336e:	67 0f       	add	r22, r23
    3370:	78 1f       	adc	r23, r24
    3372:	89 1f       	adc	r24, r25
    3374:	9a 1f       	adc	r25, r26
    3376:	a1 1d       	adc	r26, r1
    3378:	68 0f       	add	r22, r24
    337a:	79 1f       	adc	r23, r25
    337c:	8a 1f       	adc	r24, r26
    337e:	91 1d       	adc	r25, r1
    3380:	a1 1d       	adc	r26, r1
    3382:	6a 0f       	add	r22, r26
    3384:	71 1d       	adc	r23, r1
    3386:	81 1d       	adc	r24, r1
    3388:	91 1d       	adc	r25, r1
    338a:	a1 1d       	adc	r26, r1
    338c:	20 d0       	rcall	.+64     	;  0x33ce
    338e:	09 f4       	brne	.+2      	;  0x3392
    3390:	68 94       	set
    3392:	3f 91       	pop	r19
    3394:	2a e0       	ldi	r18, 0x0A	; 10
    3396:	26 9f       	mul	r18, r22
    3398:	11 24       	eor	r1, r1
    339a:	30 19       	sub	r19, r0
    339c:	30 5d       	subi	r19, 0xD0	; 208
    339e:	31 93       	st	Z+, r19
    33a0:	de f6       	brtc	.-74     	;  0x3358
    33a2:	cf 01       	movw	r24, r30
    33a4:	08 95       	ret
    33a6:	46 2f       	mov	r20, r22
    33a8:	47 70       	andi	r20, 0x07	; 7
    33aa:	40 5d       	subi	r20, 0xD0	; 208
    33ac:	41 93       	st	Z+, r20
    33ae:	b3 e0       	ldi	r27, 0x03	; 3
    33b0:	0f d0       	rcall	.+30     	;  0x33d0
    33b2:	c9 f7       	brne	.-14     	;  0x33a6
    33b4:	f6 cf       	rjmp	.-20     	;  0x33a2
    33b6:	46 2f       	mov	r20, r22
    33b8:	4f 70       	andi	r20, 0x0F	; 15
    33ba:	40 5d       	subi	r20, 0xD0	; 208
    33bc:	4a 33       	cpi	r20, 0x3A	; 58
    33be:	18 f0       	brcs	.+6      	;  0x33c6
    33c0:	49 5d       	subi	r20, 0xD9	; 217
    33c2:	31 fd       	sbrc	r19, 1
    33c4:	40 52       	subi	r20, 0x20	; 32
    33c6:	41 93       	st	Z+, r20
    33c8:	02 d0       	rcall	.+4      	;  0x33ce
    33ca:	a9 f7       	brne	.-22     	;  0x33b6
    33cc:	ea cf       	rjmp	.-44     	;  0x33a2
    33ce:	b4 e0       	ldi	r27, 0x04	; 4
    33d0:	a6 95       	lsr	r26
    33d2:	97 95       	ror	r25
    33d4:	87 95       	ror	r24
    33d6:	77 95       	ror	r23
    33d8:	67 95       	ror	r22
    33da:	ba 95       	dec	r27
    33dc:	c9 f7       	brne	.-14     	;  0x33d0
    33de:	00 97       	sbiw	r24, 0x00	; 0
    33e0:	61 05       	cpc	r22, r1
    33e2:	71 05       	cpc	r23, r1
    33e4:	08 95       	ret
    33e6:	9b 01       	movw	r18, r22
    33e8:	ac 01       	movw	r20, r24
    33ea:	0a 2e       	mov	r0, r26
    33ec:	06 94       	lsr	r0
    33ee:	57 95       	ror	r21
    33f0:	47 95       	ror	r20
    33f2:	37 95       	ror	r19
    33f4:	27 95       	ror	r18
    33f6:	ba 95       	dec	r27
    33f8:	c9 f7       	brne	.-14     	;  0x33ec
    33fa:	62 0f       	add	r22, r18
    33fc:	73 1f       	adc	r23, r19
    33fe:	84 1f       	adc	r24, r20
    3400:	95 1f       	adc	r25, r21
    3402:	a0 1d       	adc	r26, r0
    3404:	08 95       	ret
    3406:	f8 94       	cli
    3408:	ff cf       	rjmp	.-2      	;  0x3408
